
enclave.so:     file format elf64-x86-64


Disassembly of section .plt:

0000000000000520 <.plt>:
 520:	ff 35 e2 1a 22 00    	pushq  0x221ae2(%rip)        # 222008 <_GLOBAL_OFFSET_TABLE_+0x8>
 526:	ff 25 e4 1a 22 00    	jmpq   *0x221ae4(%rip)        # 222010 <_GLOBAL_OFFSET_TABLE_+0x10>
 52c:	0f 1f 40 00          	nopl   0x0(%rax)

Disassembly of section .plt.got:

0000000000000530 <.plt.got>:
 530:	ff 25 b2 1a 22 00    	jmpq   *0x221ab2(%rip)        # 221fe8 <_DYNAMIC+0x178>
 536:	66 90                	xchg   %ax,%ax
 538:	ff 25 ba 1a 22 00    	jmpq   *0x221aba(%rip)        # 221ff8 <_DYNAMIC+0x188>
 53e:	66 90                	xchg   %ax,%ax

Disassembly of section .text:

0000000000000540 <__grow_type_table>:
     540:	41 55                	push   %r13
     542:	41 54                	push   %r12
     544:	ba 00 10 00 00       	mov    $0x1000,%edx
     549:	55                   	push   %rbp
     54a:	53                   	push   %rbx
     54b:	48 89 fd             	mov    %rdi,%rbp
     54e:	51                   	push   %rcx
     54f:	8b 06                	mov    (%rsi),%eax
     551:	49 89 f4             	mov    %rsi,%r12
     554:	8d 1c 00             	lea    (%rax,%rax,1),%ebx
     557:	81 fb ff 0f 00 00    	cmp    $0xfff,%ebx
     55d:	0f 4e da             	cmovle %edx,%ebx
     560:	83 f8 08             	cmp    $0x8,%eax
     563:	48 63 fb             	movslq %ebx,%rdi
     566:	75 28                	jne    590 <__grow_type_table+0x50>
     568:	4c 8b 6d 00          	mov    0x0(%rbp),%r13
     56c:	e8 cf 46 00 00       	callq  4c40 <dlmalloc>
     571:	48 85 c0             	test   %rax,%rax
     574:	48 89 45 00          	mov    %rax,0x0(%rbp)
     578:	75 05                	jne    57f <__grow_type_table+0x3f>
     57a:	83 c8 ff             	or     $0xffffffff,%eax
     57d:	eb 57                	jmp    5d6 <__grow_type_table+0x96>
     57f:	49 63 14 24          	movslq (%r12),%rdx
     583:	4c 89 ee             	mov    %r13,%rsi
     586:	48 89 c7             	mov    %rax,%rdi
     589:	e8 82 9d 01 00       	callq  1a310 <memmove>
     58e:	eb 2a                	jmp    5ba <__grow_type_table+0x7a>
     590:	e8 ab 46 00 00       	callq  4c40 <dlmalloc>
     595:	48 85 c0             	test   %rax,%rax
     598:	49 89 c5             	mov    %rax,%r13
     59b:	74 dd                	je     57a <__grow_type_table+0x3a>
     59d:	49 63 14 24          	movslq (%r12),%rdx
     5a1:	48 8b 75 00          	mov    0x0(%rbp),%rsi
     5a5:	48 89 c7             	mov    %rax,%rdi
     5a8:	e8 63 9d 01 00       	callq  1a310 <memmove>
     5ad:	48 8b 7d 00          	mov    0x0(%rbp),%rdi
     5b1:	e8 6a 60 00 00       	callq  6620 <dlfree>
     5b6:	4c 89 6d 00          	mov    %r13,0x0(%rbp)
     5ba:	49 63 3c 24          	movslq (%r12),%rdi
     5be:	89 da                	mov    %ebx,%edx
     5c0:	31 f6                	xor    %esi,%esi
     5c2:	29 fa                	sub    %edi,%edx
     5c4:	48 03 7d 00          	add    0x0(%rbp),%rdi
     5c8:	48 63 d2             	movslq %edx,%rdx
     5cb:	e8 e0 70 00 00       	callq  76b0 <memset>
     5d0:	41 89 1c 24          	mov    %ebx,(%r12)
     5d4:	31 c0                	xor    %eax,%eax
     5d6:	5a                   	pop    %rdx
     5d7:	5b                   	pop    %rbx
     5d8:	5d                   	pop    %rbp
     5d9:	41 5c                	pop    %r12
     5db:	41 5d                	pop    %r13
     5dd:	c3                   	retq   

00000000000005de <__find_arguments>:
     5de:	41 57                	push   %r15
     5e0:	41 56                	push   %r14
     5e2:	49 89 f6             	mov    %rsi,%r14
     5e5:	41 55                	push   %r13
     5e7:	41 54                	push   %r12
     5e9:	31 f6                	xor    %esi,%esi
     5eb:	55                   	push   %rbp
     5ec:	53                   	push   %rbx
     5ed:	49 89 fd             	mov    %rdi,%r13
     5f0:	bb 01 00 00 00       	mov    $0x1,%ebx
     5f5:	45 31 ff             	xor    %r15d,%r15d
     5f8:	48 83 ec 78          	sub    $0x78,%rsp
     5fc:	64 48 8b 04 25 28 00 	mov    %fs:0x28,%rax
     603:	00 00 
     605:	48 89 44 24 68       	mov    %rax,0x68(%rsp)
     60a:	31 c0                	xor    %eax,%eax
     60c:	48 8d 44 24 60       	lea    0x60(%rsp),%rax
     611:	48 89 54 24 08       	mov    %rdx,0x8(%rsp)
     616:	ba 08 00 00 00       	mov    $0x8,%edx
     61b:	48 89 4c 24 18       	mov    %rcx,0x18(%rsp)
     620:	c7 44 24 40 08 00 00 	movl   $0x8,0x40(%rsp)
     627:	00 
     628:	4c 8d 64 24 40       	lea    0x40(%rsp),%r12
     62d:	48 89 c7             	mov    %rax,%rdi
     630:	48 89 44 24 20       	mov    %rax,0x20(%rsp)
     635:	48 89 44 24 48       	mov    %rax,0x48(%rsp)
     63a:	e8 71 70 00 00       	callq  76b0 <memset>
     63f:	48 8d 44 24 50       	lea    0x50(%rsp),%rax
     644:	ba 08 00 00 00       	mov    $0x8,%edx
     649:	31 f6                	xor    %esi,%esi
     64b:	48 8d 6c 24 48       	lea    0x48(%rsp),%rbp
     650:	48 89 c7             	mov    %rax,%rdi
     653:	48 89 44 24 28       	mov    %rax,0x28(%rsp)
     658:	e8 53 70 00 00       	callq  76b0 <memset>
     65d:	48 8d 44 24 44       	lea    0x44(%rsp),%rax
     662:	45 31 d2             	xor    %r10d,%r10d
     665:	4c 89 74 24 10       	mov    %r14,0x10(%rsp)
     66a:	48 89 44 24 30       	mov    %rax,0x30(%rsp)
     66f:	45 89 d6             	mov    %r10d,%r14d
     672:	48 8b 4c 24 28       	mov    0x28(%rsp),%rcx
     677:	48 8b 7c 24 30       	mov    0x30(%rsp),%rdi
     67c:	ba 01 00 00 00       	mov    $0x1,%edx
     681:	4c 89 ee             	mov    %r13,%rsi
     684:	e8 b7 aa 01 00       	callq  1b140 <mbrtowc>
     689:	85 c0                	test   %eax,%eax
     68b:	0f 8e 06 09 00 00    	jle    f97 <__find_arguments+0x9b9>
     691:	48 98                	cltq   
     693:	49 01 c5             	add    %rax,%r13
     696:	83 7c 24 44 25       	cmpl   $0x25,0x44(%rsp)
     69b:	75 d5                	jne    672 <__find_arguments+0x94>
     69d:	45 89 f2             	mov    %r14d,%r10d
     6a0:	48 89 2c 24          	mov    %rbp,(%rsp)
     6a4:	4d 89 e9             	mov    %r13,%r9
     6a7:	45 31 f6             	xor    %r14d,%r14d
     6aa:	44 89 d0             	mov    %r10d,%eax
     6ad:	44 89 fd             	mov    %r15d,%ebp
     6b0:	41 0f be 11          	movsbl (%r9),%edx
     6b4:	4d 8d 69 01          	lea    0x1(%r9),%r13
     6b8:	8d 4a e0             	lea    -0x20(%rdx),%ecx
     6bb:	83 f9 5a             	cmp    $0x5a,%ecx
     6be:	0f 87 c1 08 00 00    	ja     f85 <__find_arguments+0x9a7>
     6c4:	48 8d 35 a5 de 01 00 	lea    0x1dea5(%rip),%rsi        # 1e570 <g_dyn_entry_table+0xa50>
     6cb:	48 63 0c 8e          	movslq (%rsi,%rcx,4),%rcx
     6cf:	48 01 f1             	add    %rsi,%rcx
     6d2:	ff e1                	jmpq   *%rcx
     6d4:	4d 89 e8             	mov    %r13,%r8
     6d7:	45 31 ff             	xor    %r15d,%r15d
     6da:	41 0f be 08          	movsbl (%r8),%ecx
     6de:	89 ca                	mov    %ecx,%edx
     6e0:	83 e9 30             	sub    $0x30,%ecx
     6e3:	83 f9 09             	cmp    $0x9,%ecx
     6e6:	76 48                	jbe    730 <__find_arguments+0x152>
     6e8:	80 fa 24             	cmp    $0x24,%dl
     6eb:	75 6c                	jne    759 <__find_arguments+0x17b>
     6ed:	44 3b 7c 24 40       	cmp    0x40(%rsp),%r15d
     6f2:	7c 16                	jl     70a <__find_arguments+0x12c>
     6f4:	48 8b 3c 24          	mov    (%rsp),%rdi
     6f8:	4c 89 e6             	mov    %r12,%rsi
     6fb:	4c 89 44 24 38       	mov    %r8,0x38(%rsp)
     700:	e8 3b fe ff ff       	callq  540 <__grow_type_table>
     705:	4c 8b 44 24 38       	mov    0x38(%rsp),%r8
     70a:	44 39 fd             	cmp    %r15d,%ebp
     70d:	41 0f 4c ef          	cmovl  %r15d,%ebp
     711:	83 f8 ff             	cmp    $0xffffffff,%eax
     714:	0f 84 df 09 00 00    	je     10f9 <__find_arguments+0xb1b>
     71a:	48 8b 54 24 48       	mov    0x48(%rsp),%rdx
     71f:	4d 63 ff             	movslq %r15d,%r15
     722:	4d 8d 68 01          	lea    0x1(%r8),%r13
     726:	42 c6 04 3a 04       	movb   $0x4,(%rdx,%r15,1)
     72b:	4d 89 e9             	mov    %r13,%r9
     72e:	eb 80                	jmp    6b0 <__find_arguments+0xd2>
     730:	41 81 ff cc cc cc 0c 	cmp    $0xccccccc,%r15d
     737:	0f 8f bc 09 00 00    	jg     10f9 <__find_arguments+0xb1b>
     73d:	45 6b ff 0a          	imul   $0xa,%r15d,%r15d
     741:	ba ff ff ff 7f       	mov    $0x7fffffff,%edx
     746:	29 ca                	sub    %ecx,%edx
     748:	41 39 d7             	cmp    %edx,%r15d
     74b:	0f 8f a8 09 00 00    	jg     10f9 <__find_arguments+0xb1b>
     751:	41 01 cf             	add    %ecx,%r15d
     754:	49 ff c0             	inc    %r8
     757:	eb 81                	jmp    6da <__find_arguments+0xfc>
     759:	3b 5c 24 40          	cmp    0x40(%rsp),%ebx
     75d:	7c 0c                	jl     76b <__find_arguments+0x18d>
     75f:	48 8b 3c 24          	mov    (%rsp),%rdi
     763:	4c 89 e6             	mov    %r12,%rsi
     766:	e8 d5 fd ff ff       	callq  540 <__grow_type_table>
     76b:	39 dd                	cmp    %ebx,%ebp
     76d:	0f 4c eb             	cmovl  %ebx,%ebp
     770:	83 f8 ff             	cmp    $0xffffffff,%eax
     773:	0f 84 80 09 00 00    	je     10f9 <__find_arguments+0xb1b>
     779:	48 8b 74 24 48       	mov    0x48(%rsp),%rsi
     77e:	48 63 d3             	movslq %ebx,%rdx
     781:	ff c3                	inc    %ebx
     783:	c6 04 16 04          	movb   $0x4,(%rsi,%rdx,1)
     787:	eb a2                	jmp    72b <__find_arguments+0x14d>
     789:	41 0f be 55 00       	movsbl 0x0(%r13),%edx
     78e:	4d 8d 7d 01          	lea    0x1(%r13),%r15
     792:	83 fa 2a             	cmp    $0x2a,%edx
     795:	74 08                	je     79f <__find_arguments+0x1c1>
     797:	4d 89 fd             	mov    %r15,%r13
     79a:	e9 bb 00 00 00       	jmpq   85a <__find_arguments+0x27c>
     79f:	4d 89 f8             	mov    %r15,%r8
     7a2:	45 31 ed             	xor    %r13d,%r13d
     7a5:	41 0f be 10          	movsbl (%r8),%edx
     7a9:	89 d6                	mov    %edx,%esi
     7ab:	83 ea 30             	sub    $0x30,%edx
     7ae:	83 fa 09             	cmp    $0x9,%edx
     7b1:	77 29                	ja     7dc <__find_arguments+0x1fe>
     7b3:	41 81 fd cc cc cc 0c 	cmp    $0xccccccc,%r13d
     7ba:	0f 8f 39 09 00 00    	jg     10f9 <__find_arguments+0xb1b>
     7c0:	45 6b ed 0a          	imul   $0xa,%r13d,%r13d
     7c4:	b9 ff ff ff 7f       	mov    $0x7fffffff,%ecx
     7c9:	29 d1                	sub    %edx,%ecx
     7cb:	41 39 cd             	cmp    %ecx,%r13d
     7ce:	0f 8f 25 09 00 00    	jg     10f9 <__find_arguments+0xb1b>
     7d4:	41 01 d5             	add    %edx,%r13d
     7d7:	49 ff c0             	inc    %r8
     7da:	eb c9                	jmp    7a5 <__find_arguments+0x1c7>
     7dc:	40 80 fe 24          	cmp    $0x24,%sil
     7e0:	75 42                	jne    824 <__find_arguments+0x246>
     7e2:	44 3b 6c 24 40       	cmp    0x40(%rsp),%r13d
     7e7:	7c 16                	jl     7ff <__find_arguments+0x221>
     7e9:	48 8b 3c 24          	mov    (%rsp),%rdi
     7ed:	4c 89 e6             	mov    %r12,%rsi
     7f0:	4c 89 44 24 38       	mov    %r8,0x38(%rsp)
     7f5:	e8 46 fd ff ff       	callq  540 <__grow_type_table>
     7fa:	4c 8b 44 24 38       	mov    0x38(%rsp),%r8
     7ff:	44 39 ed             	cmp    %r13d,%ebp
     802:	41 0f 4c ed          	cmovl  %r13d,%ebp
     806:	83 f8 ff             	cmp    $0xffffffff,%eax
     809:	0f 84 ea 08 00 00    	je     10f9 <__find_arguments+0xb1b>
     80f:	48 8b 74 24 48       	mov    0x48(%rsp),%rsi
     814:	49 63 d5             	movslq %r13d,%rdx
     817:	4d 8d 68 01          	lea    0x1(%r8),%r13
     81b:	c6 04 16 04          	movb   $0x4,(%rsi,%rdx,1)
     81f:	e9 07 ff ff ff       	jmpq   72b <__find_arguments+0x14d>
     824:	3b 5c 24 40          	cmp    0x40(%rsp),%ebx
     828:	7c 0c                	jl     836 <__find_arguments+0x258>
     82a:	48 8b 3c 24          	mov    (%rsp),%rdi
     82e:	4c 89 e6             	mov    %r12,%rsi
     831:	e8 0a fd ff ff       	callq  540 <__grow_type_table>
     836:	39 dd                	cmp    %ebx,%ebp
     838:	0f 4c eb             	cmovl  %ebx,%ebp
     83b:	83 f8 ff             	cmp    $0xffffffff,%eax
     83e:	0f 84 b5 08 00 00    	je     10f9 <__find_arguments+0xb1b>
     844:	48 8b 74 24 48       	mov    0x48(%rsp),%rsi
     849:	48 63 d3             	movslq %ebx,%rdx
     84c:	4d 89 fd             	mov    %r15,%r13
     84f:	ff c3                	inc    %ebx
     851:	c6 04 16 04          	movb   $0x4,(%rsi,%rdx,1)
     855:	e9 d1 fe ff ff       	jmpq   72b <__find_arguments+0x14d>
     85a:	8d 4a d0             	lea    -0x30(%rdx),%ecx
     85d:	83 f9 09             	cmp    $0x9,%ecx
     860:	0f 87 52 fe ff ff    	ja     6b8 <__find_arguments+0xda>
     866:	49 ff c5             	inc    %r13
     869:	41 0f be 55 ff       	movsbl -0x1(%r13),%edx
     86e:	eb ea                	jmp    85a <__find_arguments+0x27c>
     870:	31 f6                	xor    %esi,%esi
     872:	6b f6 0a             	imul   $0xa,%esi,%esi
     875:	83 ea 30             	sub    $0x30,%edx
     878:	b9 ff ff ff 7f       	mov    $0x7fffffff,%ecx
     87d:	29 d1                	sub    %edx,%ecx
     87f:	39 ce                	cmp    %ecx,%esi
     881:	0f 8f 72 08 00 00    	jg     10f9 <__find_arguments+0xb1b>
     887:	49 ff c5             	inc    %r13
     88a:	01 d6                	add    %edx,%esi
     88c:	41 0f be 55 ff       	movsbl -0x1(%r13),%edx
     891:	8d 4a d0             	lea    -0x30(%rdx),%ecx
     894:	83 f9 09             	cmp    $0x9,%ecx
     897:	77 0d                	ja     8a6 <__find_arguments+0x2c8>
     899:	81 fe cc cc cc 0c    	cmp    $0xccccccc,%esi
     89f:	7e d1                	jle    872 <__find_arguments+0x294>
     8a1:	e9 53 08 00 00       	jmpq   10f9 <__find_arguments+0xb1b>
     8a6:	83 fa 24             	cmp    $0x24,%edx
     8a9:	0f 85 09 fe ff ff    	jne    6b8 <__find_arguments+0xda>
     8af:	89 f3                	mov    %esi,%ebx
     8b1:	e9 75 fe ff ff       	jmpq   72b <__find_arguments+0x14d>
     8b6:	41 83 ce 08          	or     $0x8,%r14d
     8ba:	e9 6c fe ff ff       	jmpq   72b <__find_arguments+0x14d>
     8bf:	41 80 7d 00 68       	cmpb   $0x68,0x0(%r13)
     8c4:	75 0f                	jne    8d5 <__find_arguments+0x2f7>
     8c6:	49 ff c5             	inc    %r13
     8c9:	41 81 ce 00 08 00 00 	or     $0x800,%r14d
     8d0:	e9 56 fe ff ff       	jmpq   72b <__find_arguments+0x14d>
     8d5:	41 83 ce 40          	or     $0x40,%r14d
     8d9:	e9 4d fe ff ff       	jmpq   72b <__find_arguments+0x14d>
     8de:	41 81 ce 00 10 00 00 	or     $0x1000,%r14d
     8e5:	e9 41 fe ff ff       	jmpq   72b <__find_arguments+0x14d>
     8ea:	41 80 7d 00 6c       	cmpb   $0x6c,0x0(%r13)
     8ef:	75 0c                	jne    8fd <__find_arguments+0x31f>
     8f1:	49 ff c5             	inc    %r13
     8f4:	41 83 ce 20          	or     $0x20,%r14d
     8f8:	e9 2e fe ff ff       	jmpq   72b <__find_arguments+0x14d>
     8fd:	41 83 ce 10          	or     $0x10,%r14d
     901:	e9 25 fe ff ff       	jmpq   72b <__find_arguments+0x14d>
     906:	41 83 ce 20          	or     $0x20,%r14d
     90a:	e9 1c fe ff ff       	jmpq   72b <__find_arguments+0x14d>
     90f:	41 81 ce 00 02 00 00 	or     $0x200,%r14d
     916:	e9 10 fe ff ff       	jmpq   72b <__find_arguments+0x14d>
     91b:	41 81 ce 00 04 00 00 	or     $0x400,%r14d
     922:	e9 04 fe ff ff       	jmpq   72b <__find_arguments+0x14d>
     927:	41 80 e6 10          	and    $0x10,%r14b
     92b:	41 89 ef             	mov    %ebp,%r15d
     92e:	41 89 c2             	mov    %eax,%r10d
     931:	48 8b 2c 24          	mov    (%rsp),%rbp
     935:	74 35                	je     96c <__find_arguments+0x38e>
     937:	3b 5c 24 40          	cmp    0x40(%rsp),%ebx
     93b:	7c 0e                	jl     94b <__find_arguments+0x36d>
     93d:	4c 89 e6             	mov    %r12,%rsi
     940:	48 89 ef             	mov    %rbp,%rdi
     943:	e8 f8 fb ff ff       	callq  540 <__grow_type_table>
     948:	41 89 c2             	mov    %eax,%r10d
     94b:	41 83 fa ff          	cmp    $0xffffffff,%r10d
     94f:	0f 84 a4 07 00 00    	je     10f9 <__find_arguments+0xb1b>
     955:	48 8b 54 24 48       	mov    0x48(%rsp),%rdx
     95a:	41 39 df             	cmp    %ebx,%r15d
     95d:	48 63 c3             	movslq %ebx,%rax
     960:	44 0f 4c fb          	cmovl  %ebx,%r15d
     964:	ff c3                	inc    %ebx
     966:	c6 04 02 1b          	movb   $0x1b,(%rdx,%rax,1)
     96a:	eb 09                	jmp    975 <__find_arguments+0x397>
     96c:	83 f8 ff             	cmp    $0xffffffff,%eax
     96f:	0f 84 84 07 00 00    	je     10f9 <__find_arguments+0xb1b>
     975:	39 5c 24 40          	cmp    %ebx,0x40(%rsp)
     979:	7f 0e                	jg     989 <__find_arguments+0x3ab>
     97b:	4c 89 e6             	mov    %r12,%rsi
     97e:	48 89 ef             	mov    %rbp,%rdi
     981:	e8 ba fb ff ff       	callq  540 <__grow_type_table>
     986:	41 89 c2             	mov    %eax,%r10d
     989:	41 83 fa ff          	cmp    $0xffffffff,%r10d
     98d:	0f 84 66 07 00 00    	je     10f9 <__find_arguments+0xb1b>
     993:	48 8b 54 24 48       	mov    0x48(%rsp),%rdx
     998:	41 39 df             	cmp    %ebx,%r15d
     99b:	48 63 c3             	movslq %ebx,%rax
     99e:	44 0f 4c fb          	cmovl  %ebx,%r15d
     9a2:	ff c3                	inc    %ebx
     9a4:	c6 04 02 04          	movb   $0x4,(%rdx,%rax,1)
     9a8:	e9 c2 fc ff ff       	jmpq   66f <__find_arguments+0x91>
     9ad:	41 89 ef             	mov    %ebp,%r15d
     9b0:	41 89 c2             	mov    %eax,%r10d
     9b3:	48 8b 2c 24          	mov    (%rsp),%rbp
     9b7:	41 83 ce 10          	or     $0x10,%r14d
     9bb:	eb 0a                	jmp    9c7 <__find_arguments+0x3e9>
     9bd:	41 89 ef             	mov    %ebp,%r15d
     9c0:	48 8b 2c 24          	mov    (%rsp),%rbp
     9c4:	41 89 c2             	mov    %eax,%r10d
     9c7:	41 f7 c6 00 10 00 00 	test   $0x1000,%r14d
     9ce:	74 39                	je     a09 <__find_arguments+0x42b>
     9d0:	3b 5c 24 40          	cmp    0x40(%rsp),%ebx
     9d4:	7c 0e                	jl     9e4 <__find_arguments+0x406>
     9d6:	4c 89 e6             	mov    %r12,%rsi
     9d9:	48 89 ef             	mov    %rbp,%rdi
     9dc:	e8 5f fb ff ff       	callq  540 <__grow_type_table>
     9e1:	41 89 c2             	mov    %eax,%r10d
     9e4:	41 83 fa ff          	cmp    $0xffffffff,%r10d
     9e8:	0f 84 0b 07 00 00    	je     10f9 <__find_arguments+0xb1b>
     9ee:	48 8b 54 24 48       	mov    0x48(%rsp),%rdx
     9f3:	41 39 df             	cmp    %ebx,%r15d
     9f6:	8d 43 01             	lea    0x1(%rbx),%eax
     9f9:	44 0f 4c fb          	cmovl  %ebx,%r15d
     9fd:	48 63 db             	movslq %ebx,%rbx
     a00:	c6 04 1a 16          	movb   $0x16,(%rdx,%rbx,1)
     a04:	e9 1d 08 00 00       	jmpq   1226 <__find_arguments+0xc48>
     a09:	41 f7 c6 00 02 00 00 	test   $0x200,%r14d
     a10:	0f 85 bc 03 00 00    	jne    dd2 <__find_arguments+0x7f4>
     a16:	41 f7 c6 00 04 00 00 	test   $0x400,%r14d
     a1d:	74 39                	je     a58 <__find_arguments+0x47a>
     a1f:	3b 5c 24 40          	cmp    0x40(%rsp),%ebx
     a23:	7c 0e                	jl     a33 <__find_arguments+0x455>
     a25:	4c 89 e6             	mov    %r12,%rsi
     a28:	48 89 ef             	mov    %rbp,%rdi
     a2b:	e8 10 fb ff ff       	callq  540 <__grow_type_table>
     a30:	41 89 c2             	mov    %eax,%r10d
     a33:	41 39 df             	cmp    %ebx,%r15d
     a36:	44 0f 4c fb          	cmovl  %ebx,%r15d
     a3a:	41 83 fa ff          	cmp    $0xffffffff,%r10d
     a3e:	0f 84 b5 06 00 00    	je     10f9 <__find_arguments+0xb1b>
     a44:	48 8b 54 24 48       	mov    0x48(%rsp),%rdx
     a49:	8d 43 01             	lea    0x1(%rbx),%eax
     a4c:	48 63 db             	movslq %ebx,%rbx
     a4f:	c6 04 1a 14          	movb   $0x14,(%rdx,%rbx,1)
     a53:	e9 ce 07 00 00       	jmpq   1226 <__find_arguments+0xc48>
     a58:	41 f6 c6 20          	test   $0x20,%r14b
     a5c:	74 39                	je     a97 <__find_arguments+0x4b9>
     a5e:	3b 5c 24 40          	cmp    0x40(%rsp),%ebx
     a62:	7c 0e                	jl     a72 <__find_arguments+0x494>
     a64:	4c 89 e6             	mov    %r12,%rsi
     a67:	48 89 ef             	mov    %rbp,%rdi
     a6a:	e8 d1 fa ff ff       	callq  540 <__grow_type_table>
     a6f:	41 89 c2             	mov    %eax,%r10d
     a72:	41 39 df             	cmp    %ebx,%r15d
     a75:	44 0f 4c fb          	cmovl  %ebx,%r15d
     a79:	41 83 fa ff          	cmp    $0xffffffff,%r10d
     a7d:	0f 84 76 06 00 00    	je     10f9 <__find_arguments+0xb1b>
     a83:	48 8b 54 24 48       	mov    0x48(%rsp),%rdx
     a88:	8d 43 01             	lea    0x1(%rbx),%eax
     a8b:	48 63 db             	movslq %ebx,%rbx
     a8e:	c6 04 1a 0a          	movb   $0xa,(%rdx,%rbx,1)
     a92:	e9 8f 07 00 00       	jmpq   1226 <__find_arguments+0xc48>
     a97:	41 f6 c6 10          	test   $0x10,%r14b
     a9b:	74 39                	je     ad6 <__find_arguments+0x4f8>
     a9d:	3b 5c 24 40          	cmp    0x40(%rsp),%ebx
     aa1:	7c 0e                	jl     ab1 <__find_arguments+0x4d3>
     aa3:	4c 89 e6             	mov    %r12,%rsi
     aa6:	48 89 ef             	mov    %rbp,%rdi
     aa9:	e8 92 fa ff ff       	callq  540 <__grow_type_table>
     aae:	41 89 c2             	mov    %eax,%r10d
     ab1:	41 39 df             	cmp    %ebx,%r15d
     ab4:	44 0f 4c fb          	cmovl  %ebx,%r15d
     ab8:	41 83 fa ff          	cmp    $0xffffffff,%r10d
     abc:	0f 84 37 06 00 00    	je     10f9 <__find_arguments+0xb1b>
     ac2:	48 8b 54 24 48       	mov    0x48(%rsp),%rdx
     ac7:	8d 43 01             	lea    0x1(%rbx),%eax
     aca:	48 63 db             	movslq %ebx,%rbx
     acd:	c6 04 1a 07          	movb   $0x7,(%rdx,%rbx,1)
     ad1:	e9 50 07 00 00       	jmpq   1226 <__find_arguments+0xc48>
     ad6:	41 f6 c6 40          	test   $0x40,%r14b
     ada:	74 39                	je     b15 <__find_arguments+0x537>
     adc:	3b 5c 24 40          	cmp    0x40(%rsp),%ebx
     ae0:	7c 0e                	jl     af0 <__find_arguments+0x512>
     ae2:	4c 89 e6             	mov    %r12,%rsi
     ae5:	48 89 ef             	mov    %rbp,%rdi
     ae8:	e8 53 fa ff ff       	callq  540 <__grow_type_table>
     aed:	41 89 c2             	mov    %eax,%r10d
     af0:	41 83 fa ff          	cmp    $0xffffffff,%r10d
     af4:	0f 84 ff 05 00 00    	je     10f9 <__find_arguments+0xb1b>
     afa:	48 8b 54 24 48       	mov    0x48(%rsp),%rdx
     aff:	41 39 df             	cmp    %ebx,%r15d
     b02:	8d 43 01             	lea    0x1(%rbx),%eax
     b05:	44 0f 4c fb          	cmovl  %ebx,%r15d
     b09:	48 63 db             	movslq %ebx,%rbx
     b0c:	c6 04 1a 01          	movb   $0x1,(%rdx,%rbx,1)
     b10:	e9 11 07 00 00       	jmpq   1226 <__find_arguments+0xc48>
     b15:	41 81 e6 00 08 00 00 	and    $0x800,%r14d
     b1c:	74 39                	je     b57 <__find_arguments+0x579>
     b1e:	3b 5c 24 40          	cmp    0x40(%rsp),%ebx
     b22:	7c 0e                	jl     b32 <__find_arguments+0x554>
     b24:	4c 89 e6             	mov    %r12,%rsi
     b27:	48 89 ef             	mov    %rbp,%rdi
     b2a:	e8 11 fa ff ff       	callq  540 <__grow_type_table>
     b2f:	41 89 c2             	mov    %eax,%r10d
     b32:	41 39 df             	cmp    %ebx,%r15d
     b35:	44 0f 4c fb          	cmovl  %ebx,%r15d
     b39:	41 83 fa ff          	cmp    $0xffffffff,%r10d
     b3d:	0f 84 b6 05 00 00    	je     10f9 <__find_arguments+0xb1b>
     b43:	48 8b 54 24 48       	mov    0x48(%rsp),%rdx
     b48:	8d 43 01             	lea    0x1(%rbx),%eax
     b4b:	48 63 db             	movslq %ebx,%rbx
     b4e:	c6 04 1a 19          	movb   $0x19,(%rdx,%rbx,1)
     b52:	e9 cf 06 00 00       	jmpq   1226 <__find_arguments+0xc48>
     b57:	3b 5c 24 40          	cmp    0x40(%rsp),%ebx
     b5b:	7c 0e                	jl     b6b <__find_arguments+0x58d>
     b5d:	4c 89 e6             	mov    %r12,%rsi
     b60:	48 89 ef             	mov    %rbp,%rdi
     b63:	e8 d8 f9 ff ff       	callq  540 <__grow_type_table>
     b68:	41 89 c2             	mov    %eax,%r10d
     b6b:	41 39 df             	cmp    %ebx,%r15d
     b6e:	44 0f 4c fb          	cmovl  %ebx,%r15d
     b72:	41 83 fa ff          	cmp    $0xffffffff,%r10d
     b76:	0f 84 7d 05 00 00    	je     10f9 <__find_arguments+0xb1b>
     b7c:	48 8b 54 24 48       	mov    0x48(%rsp),%rdx
     b81:	8d 43 01             	lea    0x1(%rbx),%eax
     b84:	48 63 db             	movslq %ebx,%rbx
     b87:	c6 04 1a 04          	movb   $0x4,(%rdx,%rbx,1)
     b8b:	e9 96 06 00 00       	jmpq   1226 <__find_arguments+0xc48>
     b90:	41 80 e6 08          	and    $0x8,%r14b
     b94:	41 89 ef             	mov    %ebp,%r15d
     b97:	41 89 c2             	mov    %eax,%r10d
     b9a:	48 8b 2c 24          	mov    (%rsp),%rbp
     b9e:	74 35                	je     bd5 <__find_arguments+0x5f7>
     ba0:	3b 5c 24 40          	cmp    0x40(%rsp),%ebx
     ba4:	7c 0e                	jl     bb4 <__find_arguments+0x5d6>
     ba6:	4c 89 e6             	mov    %r12,%rsi
     ba9:	48 89 ef             	mov    %rbp,%rdi
     bac:	e8 8f f9 ff ff       	callq  540 <__grow_type_table>
     bb1:	41 89 c2             	mov    %eax,%r10d
     bb4:	41 83 fa ff          	cmp    $0xffffffff,%r10d
     bb8:	0f 84 3b 05 00 00    	je     10f9 <__find_arguments+0xb1b>
     bbe:	48 8b 54 24 48       	mov    0x48(%rsp),%rdx
     bc3:	41 39 df             	cmp    %ebx,%r15d
     bc6:	48 63 c3             	movslq %ebx,%rax
     bc9:	44 0f 4c fb          	cmovl  %ebx,%r15d
     bcd:	ff c3                	inc    %ebx
     bcf:	c6 04 02 0e          	movb   $0xe,(%rdx,%rax,1)
     bd3:	eb 09                	jmp    bde <__find_arguments+0x600>
     bd5:	83 f8 ff             	cmp    $0xffffffff,%eax
     bd8:	0f 84 1b 05 00 00    	je     10f9 <__find_arguments+0xb1b>
     bde:	39 5c 24 40          	cmp    %ebx,0x40(%rsp)
     be2:	7f 17                	jg     bfb <__find_arguments+0x61d>
     be4:	4c 89 e6             	mov    %r12,%rsi
     be7:	48 89 ef             	mov    %rbp,%rdi
     bea:	e8 51 f9 ff ff       	callq  540 <__grow_type_table>
     bef:	83 f8 ff             	cmp    $0xffffffff,%eax
     bf2:	41 89 c2             	mov    %eax,%r10d
     bf5:	0f 84 fe 04 00 00    	je     10f9 <__find_arguments+0xb1b>
     bfb:	48 8b 54 24 48       	mov    0x48(%rsp),%rdx
     c00:	41 39 df             	cmp    %ebx,%r15d
     c03:	48 63 c3             	movslq %ebx,%rax
     c06:	44 0f 4c fb          	cmovl  %ebx,%r15d
     c0a:	ff c3                	inc    %ebx
     c0c:	c6 04 02 0d          	movb   $0xd,(%rdx,%rax,1)
     c10:	e9 5a fa ff ff       	jmpq   66f <__find_arguments+0x91>
     c15:	41 f6 c6 20          	test   $0x20,%r14b
     c19:	41 89 ef             	mov    %ebp,%r15d
     c1c:	41 89 c2             	mov    %eax,%r10d
     c1f:	48 8b 2c 24          	mov    (%rsp),%rbp
     c23:	74 35                	je     c5a <__find_arguments+0x67c>
     c25:	3b 5c 24 40          	cmp    0x40(%rsp),%ebx
     c29:	7c 0e                	jl     c39 <__find_arguments+0x65b>
     c2b:	4c 89 e6             	mov    %r12,%rsi
     c2e:	48 89 ef             	mov    %rbp,%rdi
     c31:	e8 0a f9 ff ff       	callq  540 <__grow_type_table>
     c36:	41 89 c2             	mov    %eax,%r10d
     c39:	41 83 fa ff          	cmp    $0xffffffff,%r10d
     c3d:	0f 84 b6 04 00 00    	je     10f9 <__find_arguments+0xb1b>
     c43:	48 8b 4c 24 48       	mov    0x48(%rsp),%rcx
     c48:	41 39 df             	cmp    %ebx,%r15d
     c4b:	48 63 c3             	movslq %ebx,%rax
     c4e:	44 0f 4c fb          	cmovl  %ebx,%r15d
     c52:	ff c3                	inc    %ebx
     c54:	c6 04 01 0c          	movb   $0xc,(%rcx,%rax,1)
     c58:	eb 09                	jmp    c63 <__find_arguments+0x685>
     c5a:	83 f8 ff             	cmp    $0xffffffff,%eax
     c5d:	0f 84 96 04 00 00    	je     10f9 <__find_arguments+0xb1b>
     c63:	41 f6 c6 10          	test   $0x10,%r14b
     c67:	0f 84 9c 04 00 00    	je     1109 <__find_arguments+0xb2b>
     c6d:	39 5c 24 40          	cmp    %ebx,0x40(%rsp)
     c71:	7f 0e                	jg     c81 <__find_arguments+0x6a3>
     c73:	4c 89 e6             	mov    %r12,%rsi
     c76:	48 89 ef             	mov    %rbp,%rdi
     c79:	e8 c2 f8 ff ff       	callq  540 <__grow_type_table>
     c7e:	41 89 c2             	mov    %eax,%r10d
     c81:	41 83 fa ff          	cmp    $0xffffffff,%r10d
     c85:	0f 84 6e 04 00 00    	je     10f9 <__find_arguments+0xb1b>
     c8b:	48 8b 4c 24 48       	mov    0x48(%rsp),%rcx
     c90:	41 39 df             	cmp    %ebx,%r15d
     c93:	48 63 c3             	movslq %ebx,%rax
     c96:	44 0f 4c fb          	cmovl  %ebx,%r15d
     c9a:	ff c3                	inc    %ebx
     c9c:	c6 04 01 09          	movb   $0x9,(%rcx,%rax,1)
     ca0:	e9 64 04 00 00       	jmpq   1109 <__find_arguments+0xb2b>
     ca5:	3b 5c 24 40          	cmp    0x40(%rsp),%ebx
     ca9:	41 89 ef             	mov    %ebp,%r15d
     cac:	41 89 c2             	mov    %eax,%r10d
     caf:	48 8b 2c 24          	mov    (%rsp),%rbp
     cb3:	7c 0e                	jl     cc3 <__find_arguments+0x6e5>
     cb5:	4c 89 e6             	mov    %r12,%rsi
     cb8:	48 89 ef             	mov    %rbp,%rdi
     cbb:	e8 80 f8 ff ff       	callq  540 <__grow_type_table>
     cc0:	41 89 c2             	mov    %eax,%r10d
     cc3:	41 83 fa ff          	cmp    $0xffffffff,%r10d
     cc7:	0f 84 2c 04 00 00    	je     10f9 <__find_arguments+0xb1b>
     ccd:	48 8b 54 24 48       	mov    0x48(%rsp),%rdx
     cd2:	41 39 df             	cmp    %ebx,%r15d
     cd5:	48 63 c3             	movslq %ebx,%rax
     cd8:	44 0f 4c fb          	cmovl  %ebx,%r15d
     cdc:	ff c3                	inc    %ebx
     cde:	c6 04 02 10          	movb   $0x10,(%rdx,%rax,1)
     ce2:	e9 88 f9 ff ff       	jmpq   66f <__find_arguments+0x91>
     ce7:	41 80 e6 10          	and    $0x10,%r14b
     ceb:	41 89 ef             	mov    %ebp,%r15d
     cee:	41 89 c2             	mov    %eax,%r10d
     cf1:	48 8b 2c 24          	mov    (%rsp),%rbp
     cf5:	74 35                	je     d2c <__find_arguments+0x74e>
     cf7:	3b 5c 24 40          	cmp    0x40(%rsp),%ebx
     cfb:	7c 0e                	jl     d0b <__find_arguments+0x72d>
     cfd:	4c 89 e6             	mov    %r12,%rsi
     d00:	48 89 ef             	mov    %rbp,%rdi
     d03:	e8 38 f8 ff ff       	callq  540 <__grow_type_table>
     d08:	41 89 c2             	mov    %eax,%r10d
     d0b:	41 83 fa ff          	cmp    $0xffffffff,%r10d
     d0f:	0f 84 e4 03 00 00    	je     10f9 <__find_arguments+0xb1b>
     d15:	48 8b 54 24 48       	mov    0x48(%rsp),%rdx
     d1a:	41 39 df             	cmp    %ebx,%r15d
     d1d:	48 63 c3             	movslq %ebx,%rax
     d20:	44 0f 4c fb          	cmovl  %ebx,%r15d
     d24:	ff c3                	inc    %ebx
     d26:	c6 04 02 1c          	movb   $0x1c,(%rdx,%rax,1)
     d2a:	eb 09                	jmp    d35 <__find_arguments+0x757>
     d2c:	83 f8 ff             	cmp    $0xffffffff,%eax
     d2f:	0f 84 c4 03 00 00    	je     10f9 <__find_arguments+0xb1b>
     d35:	39 5c 24 40          	cmp    %ebx,0x40(%rsp)
     d39:	7f 0e                	jg     d49 <__find_arguments+0x76b>
     d3b:	4c 89 e6             	mov    %r12,%rsi
     d3e:	48 89 ef             	mov    %rbp,%rdi
     d41:	e8 fa f7 ff ff       	callq  540 <__grow_type_table>
     d46:	41 89 c2             	mov    %eax,%r10d
     d49:	41 83 fa ff          	cmp    $0xffffffff,%r10d
     d4d:	0f 84 a6 03 00 00    	je     10f9 <__find_arguments+0xb1b>
     d53:	48 8b 54 24 48       	mov    0x48(%rsp),%rdx
     d58:	41 39 df             	cmp    %ebx,%r15d
     d5b:	48 63 c3             	movslq %ebx,%rax
     d5e:	44 0f 4c fb          	cmovl  %ebx,%r15d
     d62:	ff c3                	inc    %ebx
     d64:	c6 04 02 0f          	movb   $0xf,(%rdx,%rax,1)
     d68:	e9 02 f9 ff ff       	jmpq   66f <__find_arguments+0x91>
     d6d:	41 89 ef             	mov    %ebp,%r15d
     d70:	41 89 c2             	mov    %eax,%r10d
     d73:	48 8b 2c 24          	mov    (%rsp),%rbp
     d77:	41 83 ce 10          	or     $0x10,%r14d
     d7b:	eb 0a                	jmp    d87 <__find_arguments+0x7a9>
     d7d:	41 89 ef             	mov    %ebp,%r15d
     d80:	48 8b 2c 24          	mov    (%rsp),%rbp
     d84:	41 89 c2             	mov    %eax,%r10d
     d87:	41 f7 c6 00 10 00 00 	test   $0x1000,%r14d
     d8e:	74 39                	je     dc9 <__find_arguments+0x7eb>
     d90:	3b 5c 24 40          	cmp    0x40(%rsp),%ebx
     d94:	7c 0e                	jl     da4 <__find_arguments+0x7c6>
     d96:	4c 89 e6             	mov    %r12,%rsi
     d99:	48 89 ef             	mov    %rbp,%rdi
     d9c:	e8 9f f7 ff ff       	callq  540 <__grow_type_table>
     da1:	41 89 c2             	mov    %eax,%r10d
     da4:	41 83 fa ff          	cmp    $0xffffffff,%r10d
     da8:	0f 84 4b 03 00 00    	je     10f9 <__find_arguments+0xb1b>
     dae:	48 8b 54 24 48       	mov    0x48(%rsp),%rdx
     db3:	41 39 df             	cmp    %ebx,%r15d
     db6:	8d 43 01             	lea    0x1(%rbx),%eax
     db9:	44 0f 4c fb          	cmovl  %ebx,%r15d
     dbd:	48 63 db             	movslq %ebx,%rbx
     dc0:	c6 04 1a 17          	movb   $0x17,(%rdx,%rbx,1)
     dc4:	e9 5d 04 00 00       	jmpq   1226 <__find_arguments+0xc48>
     dc9:	41 f7 c6 00 02 00 00 	test   $0x200,%r14d
     dd0:	74 39                	je     e0b <__find_arguments+0x82d>
     dd2:	3b 5c 24 40          	cmp    0x40(%rsp),%ebx
     dd6:	7c 0e                	jl     de6 <__find_arguments+0x808>
     dd8:	4c 89 e6             	mov    %r12,%rsi
     ddb:	48 89 ef             	mov    %rbp,%rdi
     dde:	e8 5d f7 ff ff       	callq  540 <__grow_type_table>
     de3:	41 89 c2             	mov    %eax,%r10d
     de6:	41 83 fa ff          	cmp    $0xffffffff,%r10d
     dea:	0f 84 09 03 00 00    	je     10f9 <__find_arguments+0xb1b>
     df0:	48 8b 54 24 48       	mov    0x48(%rsp),%rdx
     df5:	41 39 df             	cmp    %ebx,%r15d
     df8:	8d 43 01             	lea    0x1(%rbx),%eax
     dfb:	44 0f 4c fb          	cmovl  %ebx,%r15d
     dff:	48 63 db             	movslq %ebx,%rbx
     e02:	c6 04 1a 11          	movb   $0x11,(%rdx,%rbx,1)
     e06:	e9 1b 04 00 00       	jmpq   1226 <__find_arguments+0xc48>
     e0b:	41 f7 c6 00 04 00 00 	test   $0x400,%r14d
     e12:	74 39                	je     e4d <__find_arguments+0x86f>
     e14:	3b 5c 24 40          	cmp    0x40(%rsp),%ebx
     e18:	7c 0e                	jl     e28 <__find_arguments+0x84a>
     e1a:	4c 89 e6             	mov    %r12,%rsi
     e1d:	48 89 ef             	mov    %rbp,%rdi
     e20:	e8 1b f7 ff ff       	callq  540 <__grow_type_table>
     e25:	41 89 c2             	mov    %eax,%r10d
     e28:	41 39 df             	cmp    %ebx,%r15d
     e2b:	44 0f 4c fb          	cmovl  %ebx,%r15d
     e2f:	41 83 fa ff          	cmp    $0xffffffff,%r10d
     e33:	0f 84 c0 02 00 00    	je     10f9 <__find_arguments+0xb1b>
     e39:	48 8b 54 24 48       	mov    0x48(%rsp),%rdx
     e3e:	8d 43 01             	lea    0x1(%rbx),%eax
     e41:	48 63 db             	movslq %ebx,%rbx
     e44:	c6 04 1a 13          	movb   $0x13,(%rdx,%rbx,1)
     e48:	e9 d9 03 00 00       	jmpq   1226 <__find_arguments+0xc48>
     e4d:	41 f6 c6 20          	test   $0x20,%r14b
     e51:	74 39                	je     e8c <__find_arguments+0x8ae>
     e53:	3b 5c 24 40          	cmp    0x40(%rsp),%ebx
     e57:	7c 0e                	jl     e67 <__find_arguments+0x889>
     e59:	4c 89 e6             	mov    %r12,%rsi
     e5c:	48 89 ef             	mov    %rbp,%rdi
     e5f:	e8 dc f6 ff ff       	callq  540 <__grow_type_table>
     e64:	41 89 c2             	mov    %eax,%r10d
     e67:	41 39 df             	cmp    %ebx,%r15d
     e6a:	44 0f 4c fb          	cmovl  %ebx,%r15d
     e6e:	41 83 fa ff          	cmp    $0xffffffff,%r10d
     e72:	0f 84 81 02 00 00    	je     10f9 <__find_arguments+0xb1b>
     e78:	48 8b 54 24 48       	mov    0x48(%rsp),%rdx
     e7d:	8d 43 01             	lea    0x1(%rbx),%eax
     e80:	48 63 db             	movslq %ebx,%rbx
     e83:	c6 04 1a 0b          	movb   $0xb,(%rdx,%rbx,1)
     e87:	e9 9a 03 00 00       	jmpq   1226 <__find_arguments+0xc48>
     e8c:	41 f6 c6 10          	test   $0x10,%r14b
     e90:	74 39                	je     ecb <__find_arguments+0x8ed>
     e92:	3b 5c 24 40          	cmp    0x40(%rsp),%ebx
     e96:	7c 0e                	jl     ea6 <__find_arguments+0x8c8>
     e98:	4c 89 e6             	mov    %r12,%rsi
     e9b:	48 89 ef             	mov    %rbp,%rdi
     e9e:	e8 9d f6 ff ff       	callq  540 <__grow_type_table>
     ea3:	41 89 c2             	mov    %eax,%r10d
     ea6:	41 39 df             	cmp    %ebx,%r15d
     ea9:	44 0f 4c fb          	cmovl  %ebx,%r15d
     ead:	41 83 fa ff          	cmp    $0xffffffff,%r10d
     eb1:	0f 84 42 02 00 00    	je     10f9 <__find_arguments+0xb1b>
     eb7:	48 8b 54 24 48       	mov    0x48(%rsp),%rdx
     ebc:	8d 43 01             	lea    0x1(%rbx),%eax
     ebf:	48 63 db             	movslq %ebx,%rbx
     ec2:	c6 04 1a 08          	movb   $0x8,(%rdx,%rbx,1)
     ec6:	e9 5b 03 00 00       	jmpq   1226 <__find_arguments+0xc48>
     ecb:	41 f6 c6 40          	test   $0x40,%r14b
     ecf:	74 39                	je     f0a <__find_arguments+0x92c>
     ed1:	3b 5c 24 40          	cmp    0x40(%rsp),%ebx
     ed5:	7c 0e                	jl     ee5 <__find_arguments+0x907>
     ed7:	4c 89 e6             	mov    %r12,%rsi
     eda:	48 89 ef             	mov    %rbp,%rdi
     edd:	e8 5e f6 ff ff       	callq  540 <__grow_type_table>
     ee2:	41 89 c2             	mov    %eax,%r10d
     ee5:	41 83 fa ff          	cmp    $0xffffffff,%r10d
     ee9:	0f 84 0a 02 00 00    	je     10f9 <__find_arguments+0xb1b>
     eef:	48 8b 54 24 48       	mov    0x48(%rsp),%rdx
     ef4:	41 39 df             	cmp    %ebx,%r15d
     ef7:	8d 43 01             	lea    0x1(%rbx),%eax
     efa:	44 0f 4c fb          	cmovl  %ebx,%r15d
     efe:	48 63 db             	movslq %ebx,%rbx
     f01:	c6 04 1a 02          	movb   $0x2,(%rdx,%rbx,1)
     f05:	e9 1c 03 00 00       	jmpq   1226 <__find_arguments+0xc48>
     f0a:	41 81 e6 00 08 00 00 	and    $0x800,%r14d
     f11:	74 39                	je     f4c <__find_arguments+0x96e>
     f13:	3b 5c 24 40          	cmp    0x40(%rsp),%ebx
     f17:	7c 0e                	jl     f27 <__find_arguments+0x949>
     f19:	4c 89 e6             	mov    %r12,%rsi
     f1c:	48 89 ef             	mov    %rbp,%rdi
     f1f:	e8 1c f6 ff ff       	callq  540 <__grow_type_table>
     f24:	41 89 c2             	mov    %eax,%r10d
     f27:	41 39 df             	cmp    %ebx,%r15d
     f2a:	44 0f 4c fb          	cmovl  %ebx,%r15d
     f2e:	41 83 fa ff          	cmp    $0xffffffff,%r10d
     f32:	0f 84 c1 01 00 00    	je     10f9 <__find_arguments+0xb1b>
     f38:	48 8b 54 24 48       	mov    0x48(%rsp),%rdx
     f3d:	8d 43 01             	lea    0x1(%rbx),%eax
     f40:	48 63 db             	movslq %ebx,%rbx
     f43:	c6 04 1a 1a          	movb   $0x1a,(%rdx,%rbx,1)
     f47:	e9 da 02 00 00       	jmpq   1226 <__find_arguments+0xc48>
     f4c:	3b 5c 24 40          	cmp    0x40(%rsp),%ebx
     f50:	7c 0e                	jl     f60 <__find_arguments+0x982>
     f52:	4c 89 e6             	mov    %r12,%rsi
     f55:	48 89 ef             	mov    %rbp,%rdi
     f58:	e8 e3 f5 ff ff       	callq  540 <__grow_type_table>
     f5d:	41 89 c2             	mov    %eax,%r10d
     f60:	41 39 df             	cmp    %ebx,%r15d
     f63:	44 0f 4c fb          	cmovl  %ebx,%r15d
     f67:	41 83 fa ff          	cmp    $0xffffffff,%r10d
     f6b:	0f 84 88 01 00 00    	je     10f9 <__find_arguments+0xb1b>
     f71:	48 8b 54 24 48       	mov    0x48(%rsp),%rdx
     f76:	8d 43 01             	lea    0x1(%rbx),%eax
     f79:	48 63 db             	movslq %ebx,%rbx
     f7c:	c6 04 1a 05          	movb   $0x5,(%rdx,%rbx,1)
     f80:	e9 a1 02 00 00       	jmpq   1226 <__find_arguments+0xc48>
     f85:	85 d2                	test   %edx,%edx
     f87:	41 89 ef             	mov    %ebp,%r15d
     f8a:	41 89 c2             	mov    %eax,%r10d
     f8d:	48 8b 2c 24          	mov    (%rsp),%rbp
     f91:	0f 85 d8 f6 ff ff    	jne    66f <__find_arguments+0x91>
     f97:	41 83 ff 07          	cmp    $0x7,%r15d
     f9b:	4c 8b 74 24 10       	mov    0x10(%rsp),%r14
     fa0:	7f 13                	jg     fb5 <__find_arguments+0x9d7>
     fa2:	ba 10 00 00 00       	mov    $0x10,%edx
     fa7:	b9 01 00 00 00       	mov    $0x1,%ecx
     fac:	48 8d 35 29 d7 01 00 	lea    0x1d729(%rip),%rsi        # 1e6dc <g_dyn_entry_table+0xbbc>
     fb3:	eb 3c                	jmp    ff1 <__find_arguments+0xa13>
     fb5:	41 8d 7f 01          	lea    0x1(%r15),%edi
     fb9:	48 8b 44 24 18       	mov    0x18(%rsp),%rax
     fbe:	48 63 ff             	movslq %edi,%rdi
     fc1:	48 c1 e7 04          	shl    $0x4,%rdi
     fc5:	48 89 38             	mov    %rdi,(%rax)
     fc8:	e8 73 3c 00 00       	callq  4c40 <dlmalloc>
     fcd:	48 8b 4c 24 08       	mov    0x8(%rsp),%rcx
     fd2:	48 85 c0             	test   %rax,%rax
     fd5:	48 89 01             	mov    %rax,(%rcx)
     fd8:	75 c8                	jne    fa2 <__find_arguments+0x9c4>
     fda:	e9 1a 01 00 00       	jmpq   10f9 <__find_arguments+0xb1b>
     fdf:	48 8b 44 24 48       	mov    0x48(%rsp),%rax
     fe4:	80 3c 08 1c          	cmpb   $0x1c,(%rax,%rcx,1)
     fe8:	76 11                	jbe    ffb <__find_arguments+0xa1d>
     fea:	48 ff c1             	inc    %rcx
     fed:	48 83 c2 10          	add    $0x10,%rdx
     ff1:	41 39 cf             	cmp    %ecx,%r15d
     ff4:	7d e9                	jge    fdf <__find_arguments+0xa01>
     ff6:	e9 cb 00 00 00       	jmpq   10c6 <__find_arguments+0xae8>
     ffb:	0f b6 04 08          	movzbl (%rax,%rcx,1),%eax
     fff:	48 63 3c 86          	movslq (%rsi,%rax,4),%rdi
    1003:	48 8b 44 24 08       	mov    0x8(%rsp),%rax
    1008:	48 8b 00             	mov    (%rax),%rax
    100b:	48 01 f7             	add    %rsi,%rdi
    100e:	ff e7                	jmpq   *%rdi
    1010:	45 8b 46 04          	mov    0x4(%r14),%r8d
    1014:	48 01 d0             	add    %rdx,%rax
    1017:	41 81 f8 af 00 00 00 	cmp    $0xaf,%r8d
    101e:	77 11                	ja     1031 <__find_arguments+0xa53>
    1020:	44 89 c7             	mov    %r8d,%edi
    1023:	41 83 c0 10          	add    $0x10,%r8d
    1027:	49 03 7e 10          	add    0x10(%r14),%rdi
    102b:	45 89 46 04          	mov    %r8d,0x4(%r14)
    102f:	eb 0c                	jmp    103d <__find_arguments+0xa5f>
    1031:	49 8b 7e 08          	mov    0x8(%r14),%rdi
    1035:	4c 8d 47 08          	lea    0x8(%rdi),%r8
    1039:	4d 89 46 08          	mov    %r8,0x8(%r14)
    103d:	f2 0f 10 07          	movsd  (%rdi),%xmm0
    1041:	f2 0f 11 00          	movsd  %xmm0,(%rax)
    1045:	eb a3                	jmp    fea <__find_arguments+0xa0c>
    1047:	49 8b 7e 08          	mov    0x8(%r14),%rdi
    104b:	48 83 c7 0f          	add    $0xf,%rdi
    104f:	48 83 e7 f0          	and    $0xfffffffffffffff0,%rdi
    1053:	4c 8d 47 10          	lea    0x10(%rdi),%r8
    1057:	4d 89 46 08          	mov    %r8,0x8(%r14)
    105b:	db 2f                	fldt   (%rdi)
    105d:	db 3c 10             	fstpt  (%rax,%rdx,1)
    1060:	eb 88                	jmp    fea <__find_arguments+0xa0c>
    1062:	45 8b 06             	mov    (%r14),%r8d
    1065:	48 01 d0             	add    %rdx,%rax
    1068:	41 83 f8 2f          	cmp    $0x2f,%r8d
    106c:	77 10                	ja     107e <__find_arguments+0xaa0>
    106e:	44 89 c7             	mov    %r8d,%edi
    1071:	41 83 c0 08          	add    $0x8,%r8d
    1075:	49 03 7e 10          	add    0x10(%r14),%rdi
    1079:	45 89 06             	mov    %r8d,(%r14)
    107c:	eb 0c                	jmp    108a <__find_arguments+0xaac>
    107e:	49 8b 7e 08          	mov    0x8(%r14),%rdi
    1082:	4c 8d 47 08          	lea    0x8(%rdi),%r8
    1086:	4d 89 46 08          	mov    %r8,0x8(%r14)
    108a:	8b 3f                	mov    (%rdi),%edi
    108c:	89 38                	mov    %edi,(%rax)
    108e:	e9 57 ff ff ff       	jmpq   fea <__find_arguments+0xa0c>
    1093:	45 8b 06             	mov    (%r14),%r8d
    1096:	48 01 d0             	add    %rdx,%rax
    1099:	41 83 f8 2f          	cmp    $0x2f,%r8d
    109d:	77 10                	ja     10af <__find_arguments+0xad1>
    109f:	44 89 c7             	mov    %r8d,%edi
    10a2:	41 83 c0 08          	add    $0x8,%r8d
    10a6:	49 03 7e 10          	add    0x10(%r14),%rdi
    10aa:	45 89 06             	mov    %r8d,(%r14)
    10ad:	eb 0c                	jmp    10bb <__find_arguments+0xadd>
    10af:	49 8b 7e 08          	mov    0x8(%r14),%rdi
    10b3:	4c 8d 47 08          	lea    0x8(%rdi),%r8
    10b7:	4d 89 46 08          	mov    %r8,0x8(%r14)
    10bb:	48 8b 3f             	mov    (%rdi),%rdi
    10be:	48 89 38             	mov    %rdi,(%rax)
    10c1:	e9 24 ff ff ff       	jmpq   fea <__find_arguments+0xa0c>
    10c6:	31 db                	xor    %ebx,%ebx
    10c8:	48 8b 7c 24 48       	mov    0x48(%rsp),%rdi
    10cd:	48 85 ff             	test   %rdi,%rdi
    10d0:	74 0c                	je     10de <__find_arguments+0xb00>
    10d2:	48 3b 7c 24 20       	cmp    0x20(%rsp),%rdi
    10d7:	74 05                	je     10de <__find_arguments+0xb00>
    10d9:	e8 42 55 00 00       	callq  6620 <dlfree>
    10de:	48 8b 4c 24 68       	mov    0x68(%rsp),%rcx
    10e3:	64 48 33 0c 25 28 00 	xor    %fs:0x28,%rcx
    10ea:	00 00 
    10ec:	89 d8                	mov    %ebx,%eax
    10ee:	0f 84 39 01 00 00    	je     122d <__find_arguments+0xc4f>
    10f4:	e8 27 33 00 00       	callq  4420 <__stack_chk_fail>
    10f9:	e8 52 33 00 00       	callq  4450 <__errno>
    10fe:	83 cb ff             	or     $0xffffffff,%ebx
    1101:	c7 00 0c 00 00 00    	movl   $0xc,(%rax)
    1107:	eb bf                	jmp    10c8 <__find_arguments+0xaea>
    1109:	41 f6 c6 40          	test   $0x40,%r14b
    110d:	74 2f                	je     113e <__find_arguments+0xb60>
    110f:	39 5c 24 40          	cmp    %ebx,0x40(%rsp)
    1113:	7f 0e                	jg     1123 <__find_arguments+0xb45>
    1115:	4c 89 e6             	mov    %r12,%rsi
    1118:	48 89 ef             	mov    %rbp,%rdi
    111b:	e8 20 f4 ff ff       	callq  540 <__grow_type_table>
    1120:	41 89 c2             	mov    %eax,%r10d
    1123:	41 83 fa ff          	cmp    $0xffffffff,%r10d
    1127:	74 d0                	je     10f9 <__find_arguments+0xb1b>
    1129:	48 8b 4c 24 48       	mov    0x48(%rsp),%rcx
    112e:	41 39 df             	cmp    %ebx,%r15d
    1131:	48 63 c3             	movslq %ebx,%rax
    1134:	44 0f 4c fb          	cmovl  %ebx,%r15d
    1138:	ff c3                	inc    %ebx
    113a:	c6 04 01 03          	movb   $0x3,(%rcx,%rax,1)
    113e:	41 f7 c6 00 02 00 00 	test   $0x200,%r14d
    1145:	74 2f                	je     1176 <__find_arguments+0xb98>
    1147:	39 5c 24 40          	cmp    %ebx,0x40(%rsp)
    114b:	7f 0e                	jg     115b <__find_arguments+0xb7d>
    114d:	4c 89 e6             	mov    %r12,%rsi
    1150:	48 89 ef             	mov    %rbp,%rdi
    1153:	e8 e8 f3 ff ff       	callq  540 <__grow_type_table>
    1158:	41 89 c2             	mov    %eax,%r10d
    115b:	41 83 fa ff          	cmp    $0xffffffff,%r10d
    115f:	74 98                	je     10f9 <__find_arguments+0xb1b>
    1161:	48 8b 4c 24 48       	mov    0x48(%rsp),%rcx
    1166:	41 39 df             	cmp    %ebx,%r15d
    1169:	48 63 c3             	movslq %ebx,%rax
    116c:	44 0f 4c fb          	cmovl  %ebx,%r15d
    1170:	ff c3                	inc    %ebx
    1172:	c6 04 01 12          	movb   $0x12,(%rcx,%rax,1)
    1176:	41 f7 c6 00 04 00 00 	test   $0x400,%r14d
    117d:	74 33                	je     11b2 <__find_arguments+0xbd4>
    117f:	39 5c 24 40          	cmp    %ebx,0x40(%rsp)
    1183:	7f 0e                	jg     1193 <__find_arguments+0xbb5>
    1185:	4c 89 e6             	mov    %r12,%rsi
    1188:	48 89 ef             	mov    %rbp,%rdi
    118b:	e8 b0 f3 ff ff       	callq  540 <__grow_type_table>
    1190:	41 89 c2             	mov    %eax,%r10d
    1193:	41 83 fa ff          	cmp    $0xffffffff,%r10d
    1197:	0f 84 5c ff ff ff    	je     10f9 <__find_arguments+0xb1b>
    119d:	48 8b 4c 24 48       	mov    0x48(%rsp),%rcx
    11a2:	41 39 df             	cmp    %ebx,%r15d
    11a5:	48 63 c3             	movslq %ebx,%rax
    11a8:	44 0f 4c fb          	cmovl  %ebx,%r15d
    11ac:	ff c3                	inc    %ebx
    11ae:	c6 04 01 15          	movb   $0x15,(%rcx,%rax,1)
    11b2:	41 81 e6 00 10 00 00 	and    $0x1000,%r14d
    11b9:	74 33                	je     11ee <__find_arguments+0xc10>
    11bb:	39 5c 24 40          	cmp    %ebx,0x40(%rsp)
    11bf:	7f 0e                	jg     11cf <__find_arguments+0xbf1>
    11c1:	4c 89 e6             	mov    %r12,%rsi
    11c4:	48 89 ef             	mov    %rbp,%rdi
    11c7:	e8 74 f3 ff ff       	callq  540 <__grow_type_table>
    11cc:	41 89 c2             	mov    %eax,%r10d
    11cf:	41 83 fa ff          	cmp    $0xffffffff,%r10d
    11d3:	0f 84 20 ff ff ff    	je     10f9 <__find_arguments+0xb1b>
    11d9:	48 8b 54 24 48       	mov    0x48(%rsp),%rdx
    11de:	41 39 df             	cmp    %ebx,%r15d
    11e1:	48 63 c3             	movslq %ebx,%rax
    11e4:	44 0f 4c fb          	cmovl  %ebx,%r15d
    11e8:	ff c3                	inc    %ebx
    11ea:	c6 04 02 18          	movb   $0x18,(%rdx,%rax,1)
    11ee:	39 5c 24 40          	cmp    %ebx,0x40(%rsp)
    11f2:	7f 0e                	jg     1202 <__find_arguments+0xc24>
    11f4:	4c 89 e6             	mov    %r12,%rsi
    11f7:	48 89 ef             	mov    %rbp,%rdi
    11fa:	e8 41 f3 ff ff       	callq  540 <__grow_type_table>
    11ff:	41 89 c2             	mov    %eax,%r10d
    1202:	41 83 fa ff          	cmp    $0xffffffff,%r10d
    1206:	0f 84 ed fe ff ff    	je     10f9 <__find_arguments+0xb1b>
    120c:	48 8b 54 24 48       	mov    0x48(%rsp),%rdx
    1211:	41 39 df             	cmp    %ebx,%r15d
    1214:	48 63 c3             	movslq %ebx,%rax
    1217:	44 0f 4c fb          	cmovl  %ebx,%r15d
    121b:	ff c3                	inc    %ebx
    121d:	c6 04 02 06          	movb   $0x6,(%rdx,%rax,1)
    1221:	e9 49 f4 ff ff       	jmpq   66f <__find_arguments+0x91>
    1226:	89 c3                	mov    %eax,%ebx
    1228:	e9 42 f4 ff ff       	jmpq   66f <__find_arguments+0x91>
    122d:	48 83 c4 78          	add    $0x78,%rsp
    1231:	5b                   	pop    %rbx
    1232:	5d                   	pop    %rbp
    1233:	41 5c                	pop    %r12
    1235:	41 5d                	pop    %r13
    1237:	41 5e                	pop    %r14
    1239:	41 5f                	pop    %r15
    123b:	c3                   	retq   
    123c:	0f 1f 40 00          	nopl   0x0(%rax)

0000000000001240 <trts_access_version_dummy1>:
    1240:	48 8d 05 e9 0d 22 00 	lea    0x220de9(%rip),%rax        # 222030 <sgx_trts_version>
    1247:	c6 00 73             	movb   $0x73,(%rax)
    124a:	c3                   	retq   
    124b:	0f 1f 44 00 00       	nopl   0x0(%rax,%rax,1)

0000000000001250 <tstdc_access_version_dummy1>:
    1250:	c6 05 09 0e 22 00 73 	movb   $0x73,0x220e09(%rip)        # 222060 <sgx_tstdc_version>
    1257:	48 8d 05 02 0e 22 00 	lea    0x220e02(%rip),%rax        # 222060 <sgx_tstdc_version>
    125e:	c3                   	retq   
    125f:	90                   	nop

0000000000001260 <tcrypto_access_version_dummy1>:
    1260:	c6 05 79 16 22 00 73 	movb   $0x73,0x221679(%rip)        # 2228e0 <sgx_tcrypto_version>
    1267:	48 8d 05 72 16 22 00 	lea    0x221672(%rip),%rax        # 2228e0 <sgx_tcrypto_version>
    126e:	c3                   	retq   
    126f:	90                   	nop

0000000000001270 <tservice_access_version_dummy1>:
    1270:	c6 05 a9 16 22 00 73 	movb   $0x73,0x2216a9(%rip)        # 222920 <sgx_tservice_version>
    1277:	48 8d 05 a2 16 22 00 	lea    0x2216a2(%rip),%rax        # 222920 <sgx_tservice_version>
    127e:	c3                   	retq   

000000000000127f <sgx_enclave_main>:
    127f:	55                   	push   %rbp
    1280:	48 89 e5             	mov    %rsp,%rbp
    1283:	48 83 ec 20          	sub    $0x20,%rsp
    1287:	48 89 7d e8          	mov    %rdi,-0x18(%rbp)
    128b:	c7 45 fc 00 00 00 00 	movl   $0x0,-0x4(%rbp)
    1292:	48 83 7d e8 00       	cmpq   $0x0,-0x18(%rbp)
    1297:	74 07                	je     12a0 <sgx_enclave_main+0x21>
    1299:	b8 02 00 00 00       	mov    $0x2,%eax
    129e:	eb 08                	jmp    12a8 <sgx_enclave_main+0x29>
    12a0:	e8 e3 04 00 00       	callq  1788 <enclave_main>
    12a5:	8b 45 fc             	mov    -0x4(%rbp),%eax
    12a8:	c9                   	leaveq 
    12a9:	c3                   	retq   

00000000000012aa <ocall_print_string>:
    12aa:	55                   	push   %rbp
    12ab:	48 89 e5             	mov    %rsp,%rbp
    12ae:	48 83 ec 40          	sub    $0x40,%rsp
    12b2:	48 89 7d c8          	mov    %rdi,-0x38(%rbp)
    12b6:	c7 45 dc 00 00 00 00 	movl   $0x0,-0x24(%rbp)
    12bd:	48 83 7d c8 00       	cmpq   $0x0,-0x38(%rbp)
    12c2:	74 12                	je     12d6 <ocall_print_string+0x2c>
    12c4:	48 8b 45 c8          	mov    -0x38(%rbp),%rax
    12c8:	48 89 c7             	mov    %rax,%rdi
    12cb:	e8 e0 67 00 00       	callq  7ab0 <strlen>
    12d0:	48 83 c0 01          	add    $0x1,%rax
    12d4:	eb 05                	jmp    12db <ocall_print_string+0x31>
    12d6:	b8 00 00 00 00       	mov    $0x0,%eax
    12db:	48 89 45 e0          	mov    %rax,-0x20(%rbp)
    12df:	48 c7 45 e8 00 00 00 	movq   $0x0,-0x18(%rbp)
    12e6:	00 
    12e7:	48 c7 45 f0 08 00 00 	movq   $0x8,-0x10(%rbp)
    12ee:	00 
    12ef:	48 c7 45 f8 00 00 00 	movq   $0x0,-0x8(%rbp)
    12f6:	00 
    12f7:	48 83 7d c8 00       	cmpq   $0x0,-0x38(%rbp)
    12fc:	74 21                	je     131f <ocall_print_string+0x75>
    12fe:	48 8b 55 e0          	mov    -0x20(%rbp),%rdx
    1302:	48 8b 45 c8          	mov    -0x38(%rbp),%rax
    1306:	48 89 d6             	mov    %rdx,%rsi
    1309:	48 89 c7             	mov    %rax,%rdi
    130c:	e8 9f 08 00 00       	callq  1bb0 <sgx_is_within_enclave>
    1311:	85 c0                	test   %eax,%eax
    1313:	75 0a                	jne    131f <ocall_print_string+0x75>
    1315:	b8 02 00 00 00       	mov    $0x2,%eax
    131a:	e9 f1 00 00 00       	jmpq   1410 <ocall_print_string+0x166>
    131f:	48 83 7d c8 00       	cmpq   $0x0,-0x38(%rbp)
    1324:	74 06                	je     132c <ocall_print_string+0x82>
    1326:	48 8b 45 e0          	mov    -0x20(%rbp),%rax
    132a:	eb 05                	jmp    1331 <ocall_print_string+0x87>
    132c:	b8 00 00 00 00       	mov    $0x0,%eax
    1331:	48 01 45 f0          	add    %rax,-0x10(%rbp)
    1335:	48 83 7d c8 00       	cmpq   $0x0,-0x38(%rbp)
    133a:	74 06                	je     1342 <ocall_print_string+0x98>
    133c:	48 8b 45 e0          	mov    -0x20(%rbp),%rax
    1340:	eb 05                	jmp    1347 <ocall_print_string+0x9d>
    1342:	b8 00 00 00 00       	mov    $0x0,%eax
    1347:	48 39 45 f0          	cmp    %rax,-0x10(%rbp)
    134b:	73 0a                	jae    1357 <ocall_print_string+0xad>
    134d:	b8 02 00 00 00       	mov    $0x2,%eax
    1352:	e9 b9 00 00 00       	jmpq   1410 <ocall_print_string+0x166>
    1357:	48 8b 45 f0          	mov    -0x10(%rbp),%rax
    135b:	48 89 c7             	mov    %rax,%rdi
    135e:	e8 ed 08 00 00       	callq  1c50 <sgx_ocalloc>
    1363:	48 89 45 f8          	mov    %rax,-0x8(%rbp)
    1367:	48 83 7d f8 00       	cmpq   $0x0,-0x8(%rbp)
    136c:	75 0f                	jne    137d <ocall_print_string+0xd3>
    136e:	e8 cd 09 00 00       	callq  1d40 <sgx_ocfree>
    1373:	b8 01 00 00 00       	mov    $0x1,%eax
    1378:	e9 93 00 00 00       	jmpq   1410 <ocall_print_string+0x166>
    137d:	48 8b 45 f8          	mov    -0x8(%rbp),%rax
    1381:	48 89 45 e8          	mov    %rax,-0x18(%rbp)
    1385:	48 8b 45 f8          	mov    -0x8(%rbp),%rax
    1389:	48 83 c0 08          	add    $0x8,%rax
    138d:	48 89 45 f8          	mov    %rax,-0x8(%rbp)
    1391:	48 83 6d f0 08       	subq   $0x8,-0x10(%rbp)
    1396:	48 83 7d c8 00       	cmpq   $0x0,-0x38(%rbp)
    139b:	74 4c                	je     13e9 <ocall_print_string+0x13f>
    139d:	48 8b 45 e8          	mov    -0x18(%rbp),%rax
    13a1:	48 8b 55 f8          	mov    -0x8(%rbp),%rdx
    13a5:	48 89 10             	mov    %rdx,(%rax)
    13a8:	48 8b 4d e0          	mov    -0x20(%rbp),%rcx
    13ac:	48 8b 55 c8          	mov    -0x38(%rbp),%rdx
    13b0:	48 8b 75 f0          	mov    -0x10(%rbp),%rsi
    13b4:	48 8b 45 f8          	mov    -0x8(%rbp),%rax
    13b8:	48 89 c7             	mov    %rax,%rdi
    13bb:	e8 e0 67 00 00       	callq  7ba0 <memcpy_s>
    13c0:	85 c0                	test   %eax,%eax
    13c2:	74 0c                	je     13d0 <ocall_print_string+0x126>
    13c4:	e8 77 09 00 00       	callq  1d40 <sgx_ocfree>
    13c9:	b8 01 00 00 00       	mov    $0x1,%eax
    13ce:	eb 40                	jmp    1410 <ocall_print_string+0x166>
    13d0:	48 8b 55 f8          	mov    -0x8(%rbp),%rdx
    13d4:	48 8b 45 e0          	mov    -0x20(%rbp),%rax
    13d8:	48 01 d0             	add    %rdx,%rax
    13db:	48 89 45 f8          	mov    %rax,-0x8(%rbp)
    13df:	48 8b 45 e0          	mov    -0x20(%rbp),%rax
    13e3:	48 29 45 f0          	sub    %rax,-0x10(%rbp)
    13e7:	eb 0b                	jmp    13f4 <ocall_print_string+0x14a>
    13e9:	48 8b 45 e8          	mov    -0x18(%rbp),%rax
    13ed:	48 c7 00 00 00 00 00 	movq   $0x0,(%rax)
    13f4:	48 8b 45 e8          	mov    -0x18(%rbp),%rax
    13f8:	48 89 c6             	mov    %rax,%rsi
    13fb:	bf 00 00 00 00       	mov    $0x0,%edi
    1400:	e8 1b 1e 00 00       	callq  3220 <sgx_ocall>
    1405:	89 45 dc             	mov    %eax,-0x24(%rbp)
    1408:	e8 33 09 00 00       	callq  1d40 <sgx_ocfree>
    140d:	8b 45 dc             	mov    -0x24(%rbp),%eax
    1410:	c9                   	leaveq 
    1411:	c3                   	retq   

0000000000001412 <ocall_sgx_puts>:
    1412:	55                   	push   %rbp
    1413:	48 89 e5             	mov    %rsp,%rbp
    1416:	48 83 ec 40          	sub    $0x40,%rsp
    141a:	48 89 7d c8          	mov    %rdi,-0x38(%rbp)
    141e:	48 89 75 c0          	mov    %rsi,-0x40(%rbp)
    1422:	c7 45 dc 00 00 00 00 	movl   $0x0,-0x24(%rbp)
    1429:	48 83 7d c0 00       	cmpq   $0x0,-0x40(%rbp)
    142e:	74 12                	je     1442 <ocall_sgx_puts+0x30>
    1430:	48 8b 45 c0          	mov    -0x40(%rbp),%rax
    1434:	48 89 c7             	mov    %rax,%rdi
    1437:	e8 74 66 00 00       	callq  7ab0 <strlen>
    143c:	48 83 c0 01          	add    $0x1,%rax
    1440:	eb 05                	jmp    1447 <ocall_sgx_puts+0x35>
    1442:	b8 00 00 00 00       	mov    $0x0,%eax
    1447:	48 89 45 e0          	mov    %rax,-0x20(%rbp)
    144b:	48 c7 45 e8 00 00 00 	movq   $0x0,-0x18(%rbp)
    1452:	00 
    1453:	48 c7 45 f0 10 00 00 	movq   $0x10,-0x10(%rbp)
    145a:	00 
    145b:	48 c7 45 f8 00 00 00 	movq   $0x0,-0x8(%rbp)
    1462:	00 
    1463:	48 83 7d c0 00       	cmpq   $0x0,-0x40(%rbp)
    1468:	74 21                	je     148b <ocall_sgx_puts+0x79>
    146a:	48 8b 55 e0          	mov    -0x20(%rbp),%rdx
    146e:	48 8b 45 c0          	mov    -0x40(%rbp),%rax
    1472:	48 89 d6             	mov    %rdx,%rsi
    1475:	48 89 c7             	mov    %rax,%rdi
    1478:	e8 33 07 00 00       	callq  1bb0 <sgx_is_within_enclave>
    147d:	85 c0                	test   %eax,%eax
    147f:	75 0a                	jne    148b <ocall_sgx_puts+0x79>
    1481:	b8 02 00 00 00       	mov    $0x2,%eax
    1486:	e9 0c 01 00 00       	jmpq   1597 <ocall_sgx_puts+0x185>
    148b:	48 83 7d c0 00       	cmpq   $0x0,-0x40(%rbp)
    1490:	74 06                	je     1498 <ocall_sgx_puts+0x86>
    1492:	48 8b 45 e0          	mov    -0x20(%rbp),%rax
    1496:	eb 05                	jmp    149d <ocall_sgx_puts+0x8b>
    1498:	b8 00 00 00 00       	mov    $0x0,%eax
    149d:	48 01 45 f0          	add    %rax,-0x10(%rbp)
    14a1:	48 83 7d c0 00       	cmpq   $0x0,-0x40(%rbp)
    14a6:	74 06                	je     14ae <ocall_sgx_puts+0x9c>
    14a8:	48 8b 45 e0          	mov    -0x20(%rbp),%rax
    14ac:	eb 05                	jmp    14b3 <ocall_sgx_puts+0xa1>
    14ae:	b8 00 00 00 00       	mov    $0x0,%eax
    14b3:	48 39 45 f0          	cmp    %rax,-0x10(%rbp)
    14b7:	73 0a                	jae    14c3 <ocall_sgx_puts+0xb1>
    14b9:	b8 02 00 00 00       	mov    $0x2,%eax
    14be:	e9 d4 00 00 00       	jmpq   1597 <ocall_sgx_puts+0x185>
    14c3:	48 8b 45 f0          	mov    -0x10(%rbp),%rax
    14c7:	48 89 c7             	mov    %rax,%rdi
    14ca:	e8 81 07 00 00       	callq  1c50 <sgx_ocalloc>
    14cf:	48 89 45 f8          	mov    %rax,-0x8(%rbp)
    14d3:	48 83 7d f8 00       	cmpq   $0x0,-0x8(%rbp)
    14d8:	75 0f                	jne    14e9 <ocall_sgx_puts+0xd7>
    14da:	e8 61 08 00 00       	callq  1d40 <sgx_ocfree>
    14df:	b8 01 00 00 00       	mov    $0x1,%eax
    14e4:	e9 ae 00 00 00       	jmpq   1597 <ocall_sgx_puts+0x185>
    14e9:	48 8b 45 f8          	mov    -0x8(%rbp),%rax
    14ed:	48 89 45 e8          	mov    %rax,-0x18(%rbp)
    14f1:	48 8b 45 f8          	mov    -0x8(%rbp),%rax
    14f5:	48 83 c0 10          	add    $0x10,%rax
    14f9:	48 89 45 f8          	mov    %rax,-0x8(%rbp)
    14fd:	48 83 6d f0 10       	subq   $0x10,-0x10(%rbp)
    1502:	48 83 7d c0 00       	cmpq   $0x0,-0x40(%rbp)
    1507:	74 4d                	je     1556 <ocall_sgx_puts+0x144>
    1509:	48 8b 45 e8          	mov    -0x18(%rbp),%rax
    150d:	48 8b 55 f8          	mov    -0x8(%rbp),%rdx
    1511:	48 89 50 08          	mov    %rdx,0x8(%rax)
    1515:	48 8b 4d e0          	mov    -0x20(%rbp),%rcx
    1519:	48 8b 55 c0          	mov    -0x40(%rbp),%rdx
    151d:	48 8b 75 f0          	mov    -0x10(%rbp),%rsi
    1521:	48 8b 45 f8          	mov    -0x8(%rbp),%rax
    1525:	48 89 c7             	mov    %rax,%rdi
    1528:	e8 73 66 00 00       	callq  7ba0 <memcpy_s>
    152d:	85 c0                	test   %eax,%eax
    152f:	74 0c                	je     153d <ocall_sgx_puts+0x12b>
    1531:	e8 0a 08 00 00       	callq  1d40 <sgx_ocfree>
    1536:	b8 01 00 00 00       	mov    $0x1,%eax
    153b:	eb 5a                	jmp    1597 <ocall_sgx_puts+0x185>
    153d:	48 8b 55 f8          	mov    -0x8(%rbp),%rdx
    1541:	48 8b 45 e0          	mov    -0x20(%rbp),%rax
    1545:	48 01 d0             	add    %rdx,%rax
    1548:	48 89 45 f8          	mov    %rax,-0x8(%rbp)
    154c:	48 8b 45 e0          	mov    -0x20(%rbp),%rax
    1550:	48 29 45 f0          	sub    %rax,-0x10(%rbp)
    1554:	eb 0c                	jmp    1562 <ocall_sgx_puts+0x150>
    1556:	48 8b 45 e8          	mov    -0x18(%rbp),%rax
    155a:	48 c7 40 08 00 00 00 	movq   $0x0,0x8(%rax)
    1561:	00 
    1562:	48 8b 45 e8          	mov    -0x18(%rbp),%rax
    1566:	48 89 c6             	mov    %rax,%rsi
    1569:	bf 08 00 00 00       	mov    $0x8,%edi
    156e:	e8 ad 1c 00 00       	callq  3220 <sgx_ocall>
    1573:	89 45 dc             	mov    %eax,-0x24(%rbp)
    1576:	83 7d dc 00          	cmpl   $0x0,-0x24(%rbp)
    157a:	75 13                	jne    158f <ocall_sgx_puts+0x17d>
    157c:	48 83 7d c8 00       	cmpq   $0x0,-0x38(%rbp)
    1581:	74 0c                	je     158f <ocall_sgx_puts+0x17d>
    1583:	48 8b 45 e8          	mov    -0x18(%rbp),%rax
    1587:	8b 10                	mov    (%rax),%edx
    1589:	48 8b 45 c8          	mov    -0x38(%rbp),%rax
    158d:	89 10                	mov    %edx,(%rax)
    158f:	e8 ac 07 00 00       	callq  1d40 <sgx_ocfree>
    1594:	8b 45 dc             	mov    -0x24(%rbp),%eax
    1597:	c9                   	leaveq 
    1598:	c3                   	retq   

0000000000001599 <printf>:
    1599:	55                   	push   %rbp
    159a:	48 89 e5             	mov    %rsp,%rbp
    159d:	48 81 ec f0 01 00 00 	sub    $0x1f0,%rsp
    15a4:	48 89 bd 18 fe ff ff 	mov    %rdi,-0x1e8(%rbp)
    15ab:	48 89 b5 58 ff ff ff 	mov    %rsi,-0xa8(%rbp)
    15b2:	48 89 95 60 ff ff ff 	mov    %rdx,-0xa0(%rbp)
    15b9:	48 89 8d 68 ff ff ff 	mov    %rcx,-0x98(%rbp)
    15c0:	4c 89 85 70 ff ff ff 	mov    %r8,-0x90(%rbp)
    15c7:	4c 89 8d 78 ff ff ff 	mov    %r9,-0x88(%rbp)
    15ce:	84 c0                	test   %al,%al
    15d0:	74 20                	je     15f2 <printf+0x59>
    15d2:	0f 29 45 80          	movaps %xmm0,-0x80(%rbp)
    15d6:	0f 29 4d 90          	movaps %xmm1,-0x70(%rbp)
    15da:	0f 29 55 a0          	movaps %xmm2,-0x60(%rbp)
    15de:	0f 29 5d b0          	movaps %xmm3,-0x50(%rbp)
    15e2:	0f 29 65 c0          	movaps %xmm4,-0x40(%rbp)
    15e6:	0f 29 6d d0          	movaps %xmm5,-0x30(%rbp)
    15ea:	0f 29 75 e0          	movaps %xmm6,-0x20(%rbp)
    15ee:	0f 29 7d f0          	movaps %xmm7,-0x10(%rbp)
    15f2:	64 48 8b 04 25 28 00 	mov    %fs:0x28,%rax
    15f9:	00 00 
    15fb:	48 89 85 48 ff ff ff 	mov    %rax,-0xb8(%rbp)
    1602:	31 c0                	xor    %eax,%eax
    1604:	48 8d 95 40 fe ff ff 	lea    -0x1c0(%rbp),%rdx
    160b:	b8 00 00 00 00       	mov    $0x0,%eax
    1610:	b9 20 00 00 00       	mov    $0x20,%ecx
    1615:	48 89 d7             	mov    %rdx,%rdi
    1618:	f3 48 ab             	rep stos %rax,%es:(%rdi)
    161b:	c7 85 28 fe ff ff 08 	movl   $0x8,-0x1d8(%rbp)
    1622:	00 00 00 
    1625:	c7 85 2c fe ff ff 30 	movl   $0x30,-0x1d4(%rbp)
    162c:	00 00 00 
    162f:	48 8d 45 10          	lea    0x10(%rbp),%rax
    1633:	48 89 85 30 fe ff ff 	mov    %rax,-0x1d0(%rbp)
    163a:	48 8d 85 50 ff ff ff 	lea    -0xb0(%rbp),%rax
    1641:	48 89 85 38 fe ff ff 	mov    %rax,-0x1c8(%rbp)
    1648:	48 8d 8d 28 fe ff ff 	lea    -0x1d8(%rbp),%rcx
    164f:	48 8b 95 18 fe ff ff 	mov    -0x1e8(%rbp),%rdx
    1656:	48 8d 85 40 fe ff ff 	lea    -0x1c0(%rbp),%rax
    165d:	be 00 01 00 00       	mov    $0x100,%esi
    1662:	48 89 c7             	mov    %rax,%rdi
    1665:	e8 56 64 00 00       	callq  7ac0 <vsnprintf>
    166a:	48 8d 85 40 fe ff ff 	lea    -0x1c0(%rbp),%rax
    1671:	48 89 c7             	mov    %rax,%rdi
    1674:	e8 31 fc ff ff       	callq  12aa <ocall_print_string>
    1679:	b8 00 00 00 00       	mov    $0x0,%eax
    167e:	48 8b b5 48 ff ff ff 	mov    -0xb8(%rbp),%rsi
    1685:	64 48 33 34 25 28 00 	xor    %fs:0x28,%rsi
    168c:	00 00 
    168e:	74 05                	je     1695 <printf+0xfc>
    1690:	e8 8b 2d 00 00       	callq  4420 <__stack_chk_fail>
    1695:	c9                   	leaveq 
    1696:	c3                   	retq   

0000000000001697 <puts>:
    1697:	55                   	push   %rbp
    1698:	48 89 e5             	mov    %rsp,%rbp
    169b:	48 83 ec 20          	sub    $0x20,%rsp
    169f:	48 89 7d e8          	mov    %rdi,-0x18(%rbp)
    16a3:	64 48 8b 04 25 28 00 	mov    %fs:0x28,%rax
    16aa:	00 00 
    16ac:	48 89 45 f8          	mov    %rax,-0x8(%rbp)
    16b0:	31 c0                	xor    %eax,%eax
    16b2:	48 8b 55 e8          	mov    -0x18(%rbp),%rdx
    16b6:	48 8d 45 f0          	lea    -0x10(%rbp),%rax
    16ba:	48 89 d6             	mov    %rdx,%rsi
    16bd:	48 89 c7             	mov    %rax,%rdi
    16c0:	e8 4d fd ff ff       	callq  1412 <ocall_sgx_puts>
    16c5:	89 45 f4             	mov    %eax,-0xc(%rbp)
    16c8:	83 7d f4 00          	cmpl   $0x0,-0xc(%rbp)
    16cc:	74 16                	je     16e4 <puts+0x4d>
    16ce:	8b 45 f4             	mov    -0xc(%rbp),%eax
    16d1:	89 c6                	mov    %eax,%esi
    16d3:	48 8d 3d 96 c4 01 00 	lea    0x1c496(%rip),%rdi        # 1db70 <g_dyn_entry_table+0x50>
    16da:	b8 00 00 00 00       	mov    $0x0,%eax
    16df:	e8 b5 fe ff ff       	callq  1599 <printf>
    16e4:	8b 45 f0             	mov    -0x10(%rbp),%eax
    16e7:	48 8b 4d f8          	mov    -0x8(%rbp),%rcx
    16eb:	64 48 33 0c 25 28 00 	xor    %fs:0x28,%rcx
    16f2:	00 00 
    16f4:	74 05                	je     16fb <puts+0x64>
    16f6:	e8 25 2d 00 00       	callq  4420 <__stack_chk_fail>
    16fb:	c9                   	leaveq 
    16fc:	c3                   	retq   

00000000000016fd <dump_bytes>:
    16fd:	55                   	push   %rbp
    16fe:	48 89 e5             	mov    %rsp,%rbp
    1701:	48 83 ec 40          	sub    $0x40,%rsp
    1705:	48 89 7d d8          	mov    %rdi,-0x28(%rbp)
    1709:	48 89 75 d0          	mov    %rsi,-0x30(%rbp)
    170d:	48 89 55 c8          	mov    %rdx,-0x38(%rbp)
    1711:	48 8b 55 d8          	mov    -0x28(%rbp),%rdx
    1715:	48 8b 45 d0          	mov    -0x30(%rbp),%rax
    1719:	48 01 d0             	add    %rdx,%rax
    171c:	48 89 45 f8          	mov    %rax,-0x8(%rbp)
    1720:	48 8b 45 d0          	mov    -0x30(%rbp),%rax
    1724:	48 89 c6             	mov    %rax,%rsi
    1727:	48 8d 3d 43 c5 01 00 	lea    0x1c543(%rip),%rdi        # 1dc71 <g_dyn_entry_table+0x151>
    172e:	b8 00 00 00 00       	mov    $0x0,%eax
    1733:	e8 61 fe ff ff       	callq  1599 <printf>
    1738:	48 c7 45 f0 00 00 00 	movq   $0x0,-0x10(%rbp)
    173f:	00 
    1740:	eb 2d                	jmp    176f <dump_bytes+0x72>
    1742:	48 8b 55 f8          	mov    -0x8(%rbp),%rdx
    1746:	48 8b 45 f0          	mov    -0x10(%rbp),%rax
    174a:	48 01 d0             	add    %rdx,%rax
    174d:	0f b6 00             	movzbl (%rax),%eax
    1750:	88 45 ef             	mov    %al,-0x11(%rbp)
    1753:	0f b6 45 ef          	movzbl -0x11(%rbp),%eax
    1757:	89 c6                	mov    %eax,%esi
    1759:	48 8d 3d 16 c5 01 00 	lea    0x1c516(%rip),%rdi        # 1dc76 <g_dyn_entry_table+0x156>
    1760:	b8 00 00 00 00       	mov    $0x0,%eax
    1765:	e8 2f fe ff ff       	callq  1599 <printf>
    176a:	48 83 45 f0 01       	addq   $0x1,-0x10(%rbp)
    176f:	48 8b 45 f0          	mov    -0x10(%rbp),%rax
    1773:	48 3b 45 c8          	cmp    -0x38(%rbp),%rax
    1777:	72 c9                	jb     1742 <dump_bytes+0x45>
    1779:	48 8d 3d fa c4 01 00 	lea    0x1c4fa(%rip),%rdi        # 1dc7a <g_dyn_entry_table+0x15a>
    1780:	e8 12 ff ff ff       	callq  1697 <puts>
    1785:	90                   	nop
    1786:	c9                   	leaveq 
    1787:	c3                   	retq   

0000000000001788 <enclave_main>:
    1788:	55                   	push   %rbp
    1789:	48 89 e5             	mov    %rsp,%rbp
    178c:	48 81 ec c0 01 00 00 	sub    $0x1c0,%rsp
    1793:	64 48 8b 04 25 28 00 	mov    %fs:0x28,%rax
    179a:	00 00 
    179c:	48 89 45 f8          	mov    %rax,-0x8(%rbp)
    17a0:	31 c0                	xor    %eax,%eax
    17a2:	48 8d 85 40 fe ff ff 	lea    -0x1c0(%rbp),%rax
    17a9:	48 89 c2             	mov    %rax,%rdx
    17ac:	be 00 00 00 00       	mov    $0x0,%esi
    17b1:	bf 00 00 00 00       	mov    $0x0,%edi
    17b6:	b8 00 00 00 00       	mov    $0x0,%eax
    17bb:	e8 30 b9 01 00       	callq  1d0f0 <sgx_create_report>
    17c0:	48 8d 3d b8 c4 01 00 	lea    0x1c4b8(%rip),%rdi        # 1dc7f <g_dyn_entry_table+0x15f>
    17c7:	e8 cb fe ff ff       	callq  1697 <puts>
    17cc:	48 8b 95 40 fe ff ff 	mov    -0x1c0(%rbp),%rdx
    17d3:	48 8b 85 48 fe ff ff 	mov    -0x1b8(%rbp),%rax
    17da:	48 89 d6             	mov    %rdx,%rsi
    17dd:	48 89 c2             	mov    %rax,%rdx
    17e0:	48 8d 3d a3 c4 01 00 	lea    0x1c4a3(%rip),%rdi        # 1dc8a <g_dyn_entry_table+0x16a>
    17e7:	b8 00 00 00 00       	mov    $0x0,%eax
    17ec:	e8 a8 fd ff ff       	callq  1599 <printf>
    17f1:	8b 85 50 fe ff ff    	mov    -0x1b0(%rbp),%eax
    17f7:	89 c6                	mov    %eax,%esi
    17f9:	48 8d 3d 97 c4 01 00 	lea    0x1c497(%rip),%rdi        # 1dc97 <g_dyn_entry_table+0x177>
    1800:	b8 00 00 00 00       	mov    $0x0,%eax
    1805:	e8 8f fd ff ff       	callq  1599 <printf>
    180a:	48 8d 85 40 fe ff ff 	lea    -0x1c0(%rbp),%rax
    1811:	48 83 c0 20          	add    $0x20,%rax
    1815:	48 89 c6             	mov    %rax,%rsi
    1818:	48 8d 3d 87 c4 01 00 	lea    0x1c487(%rip),%rdi        # 1dca6 <g_dyn_entry_table+0x186>
    181f:	b8 00 00 00 00       	mov    $0x0,%eax
    1824:	e8 70 fd ff ff       	callq  1599 <printf>
    1829:	48 8b 95 70 fe ff ff 	mov    -0x190(%rbp),%rdx
    1830:	48 8b 85 78 fe ff ff 	mov    -0x188(%rbp),%rax
    1837:	48 89 d6             	mov    %rdx,%rsi
    183a:	48 89 c2             	mov    %rax,%rdx
    183d:	48 8d 3d 77 c4 01 00 	lea    0x1c477(%rip),%rdi        # 1dcbb <g_dyn_entry_table+0x19b>
    1844:	b8 00 00 00 00       	mov    $0x0,%eax
    1849:	e8 4b fd ff ff       	callq  1599 <printf>
    184e:	48 8d 85 40 fe ff ff 	lea    -0x1c0(%rbp),%rax
    1855:	48 05 c0 00 00 00    	add    $0xc0,%rax
    185b:	48 89 c6             	mov    %rax,%rsi
    185e:	48 8d 3d 67 c4 01 00 	lea    0x1c467(%rip),%rdi        # 1dccc <g_dyn_entry_table+0x1ac>
    1865:	b8 00 00 00 00       	mov    $0x0,%eax
    186a:	e8 2a fd ff ff       	callq  1599 <printf>
    186f:	0f b7 85 40 ff ff ff 	movzwl -0xc0(%rbp),%eax
    1876:	0f b7 c0             	movzwl %ax,%eax
    1879:	89 c6                	mov    %eax,%esi
    187b:	48 8d 3d 5a c4 01 00 	lea    0x1c45a(%rip),%rdi        # 1dcdc <g_dyn_entry_table+0x1bc>
    1882:	b8 00 00 00 00       	mov    $0x0,%eax
    1887:	e8 0d fd ff ff       	callq  1599 <printf>
    188c:	0f b7 85 42 ff ff ff 	movzwl -0xbe(%rbp),%eax
    1893:	0f b7 c0             	movzwl %ax,%eax
    1896:	89 c6                	mov    %eax,%esi
    1898:	48 8d 3d 4f c4 01 00 	lea    0x1c44f(%rip),%rdi        # 1dcee <g_dyn_entry_table+0x1ce>
    189f:	b8 00 00 00 00       	mov    $0x0,%eax
    18a4:	e8 f0 fc ff ff       	callq  1599 <printf>
    18a9:	0f b7 85 44 ff ff ff 	movzwl -0xbc(%rbp),%eax
    18b0:	0f b7 c0             	movzwl %ax,%eax
    18b3:	89 c6                	mov    %eax,%esi
    18b5:	48 8d 3d 3e c4 01 00 	lea    0x1c43e(%rip),%rdi        # 1dcfa <g_dyn_entry_table+0x1da>
    18bc:	b8 00 00 00 00       	mov    $0x0,%eax
    18c1:	e8 d3 fc ff ff       	callq  1599 <printf>
    18c6:	48 8d 85 40 fe ff ff 	lea    -0x1c0(%rbp),%rax
    18cd:	48 05 30 01 00 00    	add    $0x130,%rax
    18d3:	48 89 c6             	mov    %rax,%rsi
    18d6:	48 8d 3d 2d c4 01 00 	lea    0x1c42d(%rip),%rdi        # 1dd0a <g_dyn_entry_table+0x1ea>
    18dd:	b8 00 00 00 00       	mov    $0x0,%eax
    18e2:	e8 b2 fc ff ff       	callq  1599 <printf>
    18e7:	48 8d 3d 30 c4 01 00 	lea    0x1c430(%rip),%rdi        # 1dd1e <g_dyn_entry_table+0x1fe>
    18ee:	e8 a4 fd ff ff       	callq  1697 <puts>
    18f3:	48 8d 85 40 fe ff ff 	lea    -0x1c0(%rbp),%rax
    18fa:	ba 10 00 00 00       	mov    $0x10,%edx
    18ff:	be 00 00 00 00       	mov    $0x0,%esi
    1904:	48 89 c7             	mov    %rax,%rdi
    1907:	e8 f1 fd ff ff       	callq  16fd <dump_bytes>
    190c:	48 8d 85 40 fe ff ff 	lea    -0x1c0(%rbp),%rax
    1913:	ba 04 00 00 00       	mov    $0x4,%edx
    1918:	be 10 00 00 00       	mov    $0x10,%esi
    191d:	48 89 c7             	mov    %rax,%rdi
    1920:	e8 d8 fd ff ff       	callq  16fd <dump_bytes>
    1925:	48 8d 85 40 fe ff ff 	lea    -0x1c0(%rbp),%rax
    192c:	ba 0c 00 00 00       	mov    $0xc,%edx
    1931:	be 14 00 00 00       	mov    $0x14,%esi
    1936:	48 89 c7             	mov    %rax,%rdi
    1939:	e8 bf fd ff ff       	callq  16fd <dump_bytes>
    193e:	48 8d 85 40 fe ff ff 	lea    -0x1c0(%rbp),%rax
    1945:	ba 0c 00 00 00       	mov    $0xc,%edx
    194a:	be 20 00 00 00       	mov    $0x20,%esi
    194f:	48 89 c7             	mov    %rax,%rdi
    1952:	e8 a6 fd ff ff       	callq  16fd <dump_bytes>
    1957:	48 8d 85 40 fe ff ff 	lea    -0x1c0(%rbp),%rax
    195e:	ba 10 00 00 00       	mov    $0x10,%edx
    1963:	be 30 00 00 00       	mov    $0x30,%esi
    1968:	48 89 c7             	mov    %rax,%rdi
    196b:	e8 8d fd ff ff       	callq  16fd <dump_bytes>
    1970:	48 8d 85 40 fe ff ff 	lea    -0x1c0(%rbp),%rax
    1977:	ba 20 00 00 00       	mov    $0x20,%edx
    197c:	be 40 00 00 00       	mov    $0x40,%esi
    1981:	48 89 c7             	mov    %rax,%rdi
    1984:	e8 74 fd ff ff       	callq  16fd <dump_bytes>
    1989:	48 8d 85 40 fe ff ff 	lea    -0x1c0(%rbp),%rax
    1990:	ba 20 00 00 00       	mov    $0x20,%edx
    1995:	be 60 00 00 00       	mov    $0x60,%esi
    199a:	48 89 c7             	mov    %rax,%rdi
    199d:	e8 5b fd ff ff       	callq  16fd <dump_bytes>
    19a2:	48 8d 85 40 fe ff ff 	lea    -0x1c0(%rbp),%rax
    19a9:	ba 20 00 00 00       	mov    $0x20,%edx
    19ae:	be 80 00 00 00       	mov    $0x80,%esi
    19b3:	48 89 c7             	mov    %rax,%rdi
    19b6:	e8 42 fd ff ff       	callq  16fd <dump_bytes>
    19bb:	48 8d 85 40 fe ff ff 	lea    -0x1c0(%rbp),%rax
    19c2:	ba 20 00 00 00       	mov    $0x20,%edx
    19c7:	be a0 00 00 00       	mov    $0xa0,%esi
    19cc:	48 89 c7             	mov    %rax,%rdi
    19cf:	e8 29 fd ff ff       	callq  16fd <dump_bytes>
    19d4:	48 8d 85 40 fe ff ff 	lea    -0x1c0(%rbp),%rax
    19db:	ba 40 00 00 00       	mov    $0x40,%edx
    19e0:	be c0 00 00 00       	mov    $0xc0,%esi
    19e5:	48 89 c7             	mov    %rax,%rdi
    19e8:	e8 10 fd ff ff       	callq  16fd <dump_bytes>
    19ed:	48 8d 85 40 fe ff ff 	lea    -0x1c0(%rbp),%rax
    19f4:	ba 02 00 00 00       	mov    $0x2,%edx
    19f9:	be 00 01 00 00       	mov    $0x100,%esi
    19fe:	48 89 c7             	mov    %rax,%rdi
    1a01:	e8 f7 fc ff ff       	callq  16fd <dump_bytes>
    1a06:	48 8d 85 40 fe ff ff 	lea    -0x1c0(%rbp),%rax
    1a0d:	ba 02 00 00 00       	mov    $0x2,%edx
    1a12:	be 02 01 00 00       	mov    $0x102,%esi
    1a17:	48 89 c7             	mov    %rax,%rdi
    1a1a:	e8 de fc ff ff       	callq  16fd <dump_bytes>
    1a1f:	48 8d 85 40 fe ff ff 	lea    -0x1c0(%rbp),%rax
    1a26:	ba 02 00 00 00       	mov    $0x2,%edx
    1a2b:	be 04 01 00 00       	mov    $0x104,%esi
    1a30:	48 89 c7             	mov    %rax,%rdi
    1a33:	e8 c5 fc ff ff       	callq  16fd <dump_bytes>
    1a38:	48 8d 85 40 fe ff ff 	lea    -0x1c0(%rbp),%rax
    1a3f:	ba 2a 00 00 00       	mov    $0x2a,%edx
    1a44:	be 06 01 00 00       	mov    $0x106,%esi
    1a49:	48 89 c7             	mov    %rax,%rdi
    1a4c:	e8 ac fc ff ff       	callq  16fd <dump_bytes>
    1a51:	48 8d 85 40 fe ff ff 	lea    -0x1c0(%rbp),%rax
    1a58:	ba 10 00 00 00       	mov    $0x10,%edx
    1a5d:	be 30 01 00 00       	mov    $0x130,%esi
    1a62:	48 89 c7             	mov    %rax,%rdi
    1a65:	e8 93 fc ff ff       	callq  16fd <dump_bytes>

0000000000001a6a <l0>:
    1a6a:	c7 f8 fa ff ff ff    	xbeginq 1a6a <l0>
    1a70:	0f 01 d5             	xend   
    1a73:	90                   	nop
    1a74:	48 8b 45 f8          	mov    -0x8(%rbp),%rax
    1a78:	64 48 33 04 25 28 00 	xor    %fs:0x28,%rax
    1a7f:	00 00 
    1a81:	74 05                	je     1a88 <l0+0x1e>
    1a83:	e8 98 29 00 00       	callq  4420 <__stack_chk_fail>
    1a88:	c9                   	leaveq 
    1a89:	c3                   	retq   
    1a8a:	66 0f 1f 44 00 00    	nopw   0x0(%rax,%rax,1)

0000000000001a90 <init_optimized_libs>:
    1a90:	55                   	push   %rbp
    1a91:	53                   	push   %rbx
    1a92:	48 83 ec 08          	sub    $0x8,%rsp
    1a96:	48 8d 05 a7 0e 22 00 	lea    0x220ea7(%rip),%rax        # 222944 <g_enclave_state>
    1a9d:	83 38 01             	cmpl   $0x1,(%rax)
    1aa0:	0f 85 f2 00 00 00    	jne    1b98 <init_optimized_libs+0x108>
    1aa6:	48 89 f8             	mov    %rdi,%rax
    1aa9:	25 ff ff ff 1e       	and    $0x1effffff,%eax
    1aae:	48 f7 c7 00 00 00 e1 	test   $0xffffffffe1000000,%rdi
    1ab5:	48 0f 45 f8          	cmovne %rax,%rdi
    1ab9:	48 f7 c7 00 fe ff ff 	test   $0xfffffffffffffe00,%rdi
    1ac0:	0f 84 d2 00 00 00    	je     1b98 <init_optimized_libs+0x108>
    1ac6:	40 f6 c7 20          	test   $0x20,%dil
    1aca:	74 10                	je     1adc <init_optimized_libs+0x4c>
    1acc:	48 89 f8             	mov    %rdi,%rax
    1acf:	83 e0 1f             	and    $0x1f,%eax
    1ad2:	48 83 f8 1f          	cmp    $0x1f,%rax
    1ad6:	0f 85 bc 00 00 00    	jne    1b98 <init_optimized_libs+0x108>
    1adc:	40 f6 c7 40          	test   $0x40,%dil
    1ae0:	74 10                	je     1af2 <init_optimized_libs+0x62>
    1ae2:	48 89 f8             	mov    %rdi,%rax
    1ae5:	83 e0 3f             	and    $0x3f,%eax
    1ae8:	48 83 f8 3f          	cmp    $0x3f,%rax
    1aec:	0f 85 a6 00 00 00    	jne    1b98 <init_optimized_libs+0x108>
    1af2:	40 f6 c7 80          	test   $0x80,%dil
    1af6:	74 10                	je     1b08 <init_optimized_libs+0x78>
    1af8:	48 89 f8             	mov    %rdi,%rax
    1afb:	83 e0 7f             	and    $0x7f,%eax
    1afe:	48 83 f8 7f          	cmp    $0x7f,%rax
    1b02:	0f 85 90 00 00 00    	jne    1b98 <init_optimized_libs+0x108>
    1b08:	f7 c7 00 01 00 00    	test   $0x100,%edi
    1b0e:	74 0c                	je     1b1c <init_optimized_libs+0x8c>
    1b10:	40 0f b6 c7          	movzbl %dil,%eax
    1b14:	48 3d ff 00 00 00    	cmp    $0xff,%rax
    1b1a:	75 7c                	jne    1b98 <init_optimized_libs+0x108>
    1b1c:	f7 c7 00 02 00 00    	test   $0x200,%edi
    1b22:	74 10                	je     1b34 <init_optimized_libs+0xa4>
    1b24:	48 89 f8             	mov    %rdi,%rax
    1b27:	25 ff 01 00 00       	and    $0x1ff,%eax
    1b2c:	48 3d ff 01 00 00    	cmp    $0x1ff,%rax
    1b32:	75 64                	jne    1b98 <init_optimized_libs+0x108>
    1b34:	f7 c7 00 04 00 00    	test   $0x400,%edi
    1b3a:	75 4c                	jne    1b88 <init_optimized_libs+0xf8>
    1b3c:	83 e2 06             	and    $0x6,%edx
    1b3f:	48 89 f8             	mov    %rdi,%rax
    1b42:	48 8d 2d ff 02 22 00 	lea    0x2202ff(%rip),%rbp        # 221e48 <g_cpu_feature_indicator>
    1b49:	48 25 ff 7f 12 f1    	and    $0xfffffffff1127fff,%rax
    1b4f:	48 83 fa 06          	cmp    $0x6,%rdx
    1b53:	48 89 f3             	mov    %rsi,%rbx
    1b56:	48 0f 45 f8          	cmovne %rax,%rdi
    1b5a:	48 89 7d 00          	mov    %rdi,0x0(%rbp)
    1b5e:	e8 3d 5d 00 00       	callq  78a0 <sgx_init_string_lib>
    1b63:	85 c0                	test   %eax,%eax
    1b65:	75 31                	jne    1b98 <init_optimized_libs+0x108>
    1b67:	48 8b 7d 00          	mov    0x0(%rbp),%rdi
    1b6b:	48 89 de             	mov    %rbx,%rsi
    1b6e:	e8 4d b4 01 00       	callq  1cfc0 <sgx_init_crypto_lib>
    1b73:	85 c0                	test   %eax,%eax
    1b75:	0f 95 c0             	setne  %al
    1b78:	48 83 c4 08          	add    $0x8,%rsp
    1b7c:	0f b6 c0             	movzbl %al,%eax
    1b7f:	f7 d8                	neg    %eax
    1b81:	5b                   	pop    %rbx
    1b82:	5d                   	pop    %rbp
    1b83:	c3                   	retq   
    1b84:	0f 1f 40 00          	nopl   0x0(%rax)
    1b88:	48 89 f8             	mov    %rdi,%rax
    1b8b:	25 ff 03 00 00       	and    $0x3ff,%eax
    1b90:	48 3d ff 03 00 00    	cmp    $0x3ff,%rax
    1b96:	74 a4                	je     1b3c <init_optimized_libs+0xac>
    1b98:	48 83 c4 08          	add    $0x8,%rsp
    1b9c:	b8 ff ff ff ff       	mov    $0xffffffff,%eax
    1ba1:	5b                   	pop    %rbx
    1ba2:	5d                   	pop    %rbp
    1ba3:	c3                   	retq   
    1ba4:	66 2e 0f 1f 84 00 00 	nopw   %cs:0x0(%rax,%rax,1)
    1bab:	00 00 00 
    1bae:	66 90                	xchg   %ax,%ax

0000000000001bb0 <sgx_is_within_enclave>:
    1bb0:	48 8d 05 49 cf 01 00 	lea    0x1cf49(%rip),%rax        # 1eb00 <g_global_data>
    1bb7:	48 8b 15 22 04 22 00 	mov    0x220422(%rip),%rdx        # 221fe0 <_DYNAMIC+0x170>
    1bbe:	48 85 f6             	test   %rsi,%rsi
    1bc1:	48 8b 00             	mov    (%rax),%rax
    1bc4:	4c 8d 44 02 ff       	lea    -0x1(%rdx,%rax,1),%r8
    1bc9:	74 25                	je     1bf0 <sgx_is_within_enclave+0x40>
    1bcb:	48 8d 4c 37 ff       	lea    -0x1(%rdi,%rsi,1),%rcx
    1bd0:	48 39 cf             	cmp    %rcx,%rdi
    1bd3:	0f 96 c0             	setbe  %al
    1bd6:	48 39 d7             	cmp    %rdx,%rdi
    1bd9:	0f 93 c2             	setae  %dl
    1bdc:	21 d0                	and    %edx,%eax
    1bde:	31 d2                	xor    %edx,%edx
    1be0:	4c 39 c1             	cmp    %r8,%rcx
    1be3:	0f 96 c2             	setbe  %dl
    1be6:	21 d0                	and    %edx,%eax
    1be8:	c3                   	retq   
    1be9:	0f 1f 80 00 00 00 00 	nopl   0x0(%rax)
    1bf0:	48 89 f9             	mov    %rdi,%rcx
    1bf3:	b8 01 00 00 00       	mov    $0x1,%eax
    1bf8:	eb dc                	jmp    1bd6 <sgx_is_within_enclave+0x26>
    1bfa:	66 0f 1f 44 00 00    	nopw   0x0(%rax,%rax,1)

0000000000001c00 <sgx_is_outside_enclave>:
    1c00:	48 8d 05 f9 ce 01 00 	lea    0x1cef9(%rip),%rax        # 1eb00 <g_global_data>
    1c07:	48 85 f6             	test   %rsi,%rsi
    1c0a:	48 8b 00             	mov    (%rax),%rax
    1c0d:	74 11                	je     1c20 <sgx_is_outside_enclave+0x20>
    1c0f:	48 8d 54 37 ff       	lea    -0x1(%rdi,%rsi,1),%rdx
    1c14:	48 39 d7             	cmp    %rdx,%rdi
    1c17:	76 0a                	jbe    1c23 <sgx_is_outside_enclave+0x23>
    1c19:	31 c0                	xor    %eax,%eax
    1c1b:	c3                   	retq   
    1c1c:	0f 1f 40 00          	nopl   0x0(%rax)
    1c20:	48 89 fa             	mov    %rdi,%rdx
    1c23:	48 8b 0d b6 03 22 00 	mov    0x2203b6(%rip),%rcx        # 221fe0 <_DYNAMIC+0x170>
    1c2a:	48 8d 44 08 ff       	lea    -0x1(%rax,%rcx,1),%rax
    1c2f:	48 39 c7             	cmp    %rax,%rdi
    1c32:	40 0f 97 c6          	seta   %sil
    1c36:	48 39 d1             	cmp    %rdx,%rcx
    1c39:	0f 97 c0             	seta   %al
    1c3c:	09 f0                	or     %esi,%eax
    1c3e:	0f b6 c0             	movzbl %al,%eax
    1c41:	c3                   	retq   
    1c42:	66 2e 0f 1f 84 00 00 	nopw   %cs:0x0(%rax,%rax,1)
    1c49:	00 00 00 
    1c4c:	0f 1f 40 00          	nopl   0x0(%rax)

0000000000001c50 <sgx_ocalloc>:
    1c50:	53                   	push   %rbx
    1c51:	48 89 fb             	mov    %rdi,%rbx
    1c54:	48 83 ec 10          	sub    $0x10,%rsp
    1c58:	e8 51 bb 01 00       	callq  1d7ae <get_thread_data>
    1c5d:	48 8b 70 20          	mov    0x20(%rax),%rsi
    1c61:	48 8d 3d 98 ce 01 00 	lea    0x1ce98(%rip),%rdi        # 1eb00 <g_global_data>
    1c68:	48 8b 96 90 00 00 00 	mov    0x90(%rsi),%rdx
    1c6f:	48 8b 0f             	mov    (%rdi),%rcx
    1c72:	48 8d 42 07          	lea    0x7(%rdx),%rax
    1c76:	48 39 c2             	cmp    %rax,%rdx
    1c79:	77 3a                	ja     1cb5 <sgx_ocalloc+0x65>
    1c7b:	4c 8b 05 5e 03 22 00 	mov    0x22035e(%rip),%r8        # 221fe0 <_DYNAMIC+0x170>
    1c82:	49 8d 4c 08 ff       	lea    -0x1(%r8,%rcx,1),%rcx
    1c87:	48 39 ca             	cmp    %rcx,%rdx
    1c8a:	77 05                	ja     1c91 <sgx_ocalloc+0x41>
    1c8c:	49 39 c0             	cmp    %rax,%r8
    1c8f:	76 24                	jbe    1cb5 <sgx_ocalloc+0x65>
    1c91:	48 39 da             	cmp    %rbx,%rdx
    1c94:	72 1f                	jb     1cb5 <sgx_ocalloc+0x65>
    1c96:	48 89 d1             	mov    %rdx,%rcx
    1c99:	4c 8b 0f             	mov    (%rdi),%r9
    1c9c:	48 29 d9             	sub    %rbx,%rcx
    1c9f:	48 89 c8             	mov    %rcx,%rax
    1ca2:	48 83 e0 f0          	and    $0xfffffffffffffff0,%rax
    1ca6:	48 85 db             	test   %rbx,%rbx
    1ca9:	74 15                	je     1cc0 <sgx_ocalloc+0x70>
    1cab:	48 8d 7c 18 ff       	lea    -0x1(%rax,%rbx,1),%rdi
    1cb0:	48 39 f8             	cmp    %rdi,%rax
    1cb3:	76 0e                	jbe    1cc3 <sgx_ocalloc+0x73>
    1cb5:	e8 f0 bd 01 00       	callq  1daaa <abort>
    1cba:	66 0f 1f 44 00 00    	nopw   0x0(%rax,%rax,1)
    1cc0:	48 89 c7             	mov    %rax,%rdi
    1cc3:	4f 8d 4c 08 ff       	lea    -0x1(%r8,%r9,1),%r9
    1cc8:	4c 39 c8             	cmp    %r9,%rax
    1ccb:	77 05                	ja     1cd2 <sgx_ocalloc+0x82>
    1ccd:	49 39 f8             	cmp    %rdi,%r8
    1cd0:	76 e3                	jbe    1cb5 <sgx_ocalloc+0x65>
    1cd2:	48 83 ea 01          	sub    $0x1,%rdx
    1cd6:	48 81 e2 00 f0 ff ff 	and    $0xfffffffffffff000,%rdx
    1cdd:	48 81 e1 00 f0 ff ff 	and    $0xfffffffffffff000,%rcx
    1ce4:	74 cf                	je     1cb5 <sgx_ocalloc+0x65>
    1ce6:	48 89 54 24 08       	mov    %rdx,0x8(%rsp)
    1ceb:	48 8b 54 24 08       	mov    0x8(%rsp),%rdx
    1cf0:	48 39 d1             	cmp    %rdx,%rcx
    1cf3:	77 32                	ja     1d27 <sgx_ocalloc+0xd7>
    1cf5:	0f 1f 00             	nopl   (%rax)
    1cf8:	48 8b 54 24 08       	mov    0x8(%rsp),%rdx
    1cfd:	48 89 96 90 00 00 00 	mov    %rdx,0x90(%rsi)
    1d04:	48 8b 54 24 08       	mov    0x8(%rsp),%rdx
    1d09:	c6 02 00             	movb   $0x0,(%rdx)
    1d0c:	48 8b 54 24 08       	mov    0x8(%rsp),%rdx
    1d11:	48 81 ea 00 10 00 00 	sub    $0x1000,%rdx
    1d18:	48 89 54 24 08       	mov    %rdx,0x8(%rsp)
    1d1d:	48 8b 54 24 08       	mov    0x8(%rsp),%rdx
    1d22:	48 39 d1             	cmp    %rdx,%rcx
    1d25:	76 d1                	jbe    1cf8 <sgx_ocalloc+0xa8>
    1d27:	48 89 86 90 00 00 00 	mov    %rax,0x90(%rsi)
    1d2e:	48 83 c4 10          	add    $0x10,%rsp
    1d32:	5b                   	pop    %rbx
    1d33:	c3                   	retq   
    1d34:	66 2e 0f 1f 84 00 00 	nopw   %cs:0x0(%rax,%rax,1)
    1d3b:	00 00 00 
    1d3e:	66 90                	xchg   %ax,%ax

0000000000001d40 <sgx_ocfree>:
    1d40:	48 83 ec 08          	sub    $0x8,%rsp
    1d44:	e8 65 ba 01 00       	callq  1d7ae <get_thread_data>
    1d49:	48 8b 48 20          	mov    0x20(%rax),%rcx
    1d4d:	48 8b 40 08          	mov    0x8(%rax),%rax
    1d51:	48 8d 15 a8 cd 01 00 	lea    0x1cda8(%rip),%rdx        # 1eb00 <g_global_data>
    1d58:	48 8b 40 e8          	mov    -0x18(%rax),%rax
    1d5c:	48 8b 32             	mov    (%rdx),%rsi
    1d5f:	48 8d 50 07          	lea    0x7(%rax),%rdx
    1d63:	48 39 d0             	cmp    %rdx,%rax
    1d66:	77 16                	ja     1d7e <sgx_ocfree+0x3e>
    1d68:	48 8b 3d 71 02 22 00 	mov    0x220271(%rip),%rdi        # 221fe0 <_DYNAMIC+0x170>
    1d6f:	48 8d 74 3e ff       	lea    -0x1(%rsi,%rdi,1),%rsi
    1d74:	48 39 f0             	cmp    %rsi,%rax
    1d77:	77 0f                	ja     1d88 <sgx_ocfree+0x48>
    1d79:	48 39 d7             	cmp    %rdx,%rdi
    1d7c:	77 0a                	ja     1d88 <sgx_ocfree+0x48>
    1d7e:	e8 27 bd 01 00       	callq  1daaa <abort>
    1d83:	0f 1f 44 00 00       	nopl   0x0(%rax,%rax,1)
    1d88:	48 89 81 90 00 00 00 	mov    %rax,0x90(%rcx)
    1d8f:	48 83 c4 08          	add    $0x8,%rsp
    1d93:	c3                   	retq   
    1d94:	66 2e 0f 1f 84 00 00 	nopw   %cs:0x0(%rax,%rax,1)
    1d9b:	00 00 00 
    1d9e:	66 90                	xchg   %ax,%ax

0000000000001da0 <sgx_read_rand>:
    1da0:	41 54                	push   %r12
    1da2:	55                   	push   %rbp
    1da3:	53                   	push   %rbx
    1da4:	48 83 ec 10          	sub    $0x10,%rsp
    1da8:	64 48 8b 04 25 28 00 	mov    %fs:0x28,%rax
    1daf:	00 00 
    1db1:	48 89 44 24 08       	mov    %rax,0x8(%rsp)
    1db6:	31 c0                	xor    %eax,%eax
    1db8:	48 85 ff             	test   %rdi,%rdi
    1dbb:	74 08                	je     1dc5 <sgx_read_rand+0x25>
    1dbd:	48 85 f6             	test   %rsi,%rsi
    1dc0:	48 89 f5             	mov    %rsi,%rbp
    1dc3:	75 2b                	jne    1df0 <sgx_read_rand+0x50>
    1dc5:	b8 02 00 00 00       	mov    $0x2,%eax
    1dca:	48 8b 4c 24 08       	mov    0x8(%rsp),%rcx
    1dcf:	64 48 33 0c 25 28 00 	xor    %fs:0x28,%rcx
    1dd6:	00 00 
    1dd8:	0f 85 eb 00 00 00    	jne    1ec9 <sgx_read_rand+0x129>
    1dde:	48 83 c4 10          	add    $0x10,%rsp
    1de2:	5b                   	pop    %rbx
    1de3:	5d                   	pop    %rbp
    1de4:	41 5c                	pop    %r12
    1de6:	c3                   	retq   
    1de7:	66 0f 1f 84 00 00 00 	nopw   0x0(%rax,%rax,1)
    1dee:	00 00 
    1df0:	48 8d 0d 09 cd 01 00 	lea    0x1cd09(%rip),%rcx        # 1eb00 <g_global_data>
    1df7:	48 8b 15 e2 01 22 00 	mov    0x2201e2(%rip),%rdx        # 221fe0 <_DYNAMIC+0x170>
    1dfe:	48 8d 44 2f ff       	lea    -0x1(%rdi,%rbp,1),%rax
    1e03:	48 89 fb             	mov    %rdi,%rbx
    1e06:	48 8b 31             	mov    (%rcx),%rsi
    1e09:	48 8d 74 32 ff       	lea    -0x1(%rdx,%rsi,1),%rsi
    1e0e:	48 39 c6             	cmp    %rax,%rsi
    1e11:	40 0f 93 c7          	setae  %dil
    1e15:	48 39 c3             	cmp    %rax,%rbx
    1e18:	40 0f 96 c6          	setbe  %sil
    1e1c:	40 84 f7             	test   %sil,%dil
    1e1f:	74 57                	je     1e78 <sgx_read_rand+0xd8>
    1e21:	48 39 d3             	cmp    %rdx,%rbx
    1e24:	72 52                	jb     1e78 <sgx_read_rand+0xd8>
    1e26:	4c 8d 64 24 04       	lea    0x4(%rsp),%r12
    1e2b:	c7 44 24 04 00 00 00 	movl   $0x0,0x4(%rsp)
    1e32:	00 
    1e33:	4c 89 e7             	mov    %r12,%rdi
    1e36:	e8 50 bc 01 00       	callq  1da8b <do_rdrand>
    1e3b:	85 c0                	test   %eax,%eax
    1e3d:	74 2c                	je     1e6b <sgx_read_rand+0xcb>
    1e3f:	48 83 fd 03          	cmp    $0x3,%rbp
    1e43:	76 5b                	jbe    1ea0 <sgx_read_rand+0x100>
    1e45:	48 89 df             	mov    %rbx,%rdi
    1e48:	ba 04 00 00 00       	mov    $0x4,%edx
    1e4d:	4c 89 e6             	mov    %r12,%rsi
    1e50:	e8 2b 58 00 00       	callq  7680 <memcpy>
    1e55:	48 83 c3 04          	add    $0x4,%rbx
    1e59:	48 83 ed 04          	sub    $0x4,%rbp
    1e5d:	74 4f                	je     1eae <sgx_read_rand+0x10e>
    1e5f:	4c 89 e7             	mov    %r12,%rdi
    1e62:	e8 24 bc 01 00       	callq  1da8b <do_rdrand>
    1e67:	85 c0                	test   %eax,%eax
    1e69:	75 d4                	jne    1e3f <sgx_read_rand+0x9f>
    1e6b:	b8 01 00 00 00       	mov    $0x1,%eax
    1e70:	e9 55 ff ff ff       	jmpq   1dca <sgx_read_rand+0x2a>
    1e75:	0f 1f 00             	nopl   (%rax)
    1e78:	48 39 c3             	cmp    %rax,%rbx
    1e7b:	48 8b 09             	mov    (%rcx),%rcx
    1e7e:	0f 87 41 ff ff ff    	ja     1dc5 <sgx_read_rand+0x25>
    1e84:	48 8d 4c 0a ff       	lea    -0x1(%rdx,%rcx,1),%rcx
    1e89:	48 39 cb             	cmp    %rcx,%rbx
    1e8c:	77 98                	ja     1e26 <sgx_read_rand+0x86>
    1e8e:	48 39 c2             	cmp    %rax,%rdx
    1e91:	0f 86 2e ff ff ff    	jbe    1dc5 <sgx_read_rand+0x25>
    1e97:	eb 8d                	jmp    1e26 <sgx_read_rand+0x86>
    1e99:	0f 1f 80 00 00 00 00 	nopl   0x0(%rax)
    1ea0:	48 89 ea             	mov    %rbp,%rdx
    1ea3:	4c 89 e6             	mov    %r12,%rsi
    1ea6:	48 89 df             	mov    %rbx,%rdi
    1ea9:	e8 d2 57 00 00       	callq  7680 <memcpy>
    1eae:	b9 04 00 00 00       	mov    $0x4,%ecx
    1eb3:	31 d2                	xor    %edx,%edx
    1eb5:	be 04 00 00 00       	mov    $0x4,%esi
    1eba:	4c 89 e7             	mov    %r12,%rdi
    1ebd:	e8 fe 57 00 00       	callq  76c0 <memset_s>
    1ec2:	31 c0                	xor    %eax,%eax
    1ec4:	e9 01 ff ff ff       	jmpq   1dca <sgx_read_rand+0x2a>
    1ec9:	e8 52 25 00 00       	callq  4420 <__stack_chk_fail>
    1ece:	66 90                	xchg   %ax,%ax

0000000000001ed0 <check_static_stack_canary>:
    1ed0:	48 8d 05 61 ff 21 00 	lea    0x21ff61(%rip),%rax        # 221e38 <__intel_security_cookie>
    1ed7:	48 8b 00             	mov    (%rax),%rax
    1eda:	48 39 87 58 fd fe ff 	cmp    %rax,-0x102a8(%rdi)
    1ee1:	0f 95 c0             	setne  %al
    1ee4:	0f b6 c0             	movzbl %al,%eax
    1ee7:	f7 d8                	neg    %eax
    1ee9:	c3                   	retq   
    1eea:	66 0f 1f 44 00 00    	nopw   0x0(%rax,%rax,1)

0000000000001ef0 <random_stack_notify_gdb>:
    1ef0:	f3 c3                	repz retq 
    1ef2:	66 2e 0f 1f 84 00 00 	nopw   %cs:0x0(%rax,%rax,1)
    1ef9:	00 00 00 
    1efc:	0f 1f 40 00          	nopl   0x0(%rax)

0000000000001f00 <_ZL25check_dynamic_entry_rangePvmtmP24dynamic_flags_attributes>:
    1f00:	44 8d 52 ff          	lea    -0x1(%rdx),%r10d
    1f04:	66 41 83 fa 11       	cmp    $0x11,%r10w
    1f09:	76 0d                	jbe    1f18 <_ZL25check_dynamic_entry_rangePvmtmP24dynamic_flags_attributes+0x18>
    1f0b:	b8 ff ff ff ff       	mov    $0xffffffff,%eax
    1f10:	c3                   	retq   
    1f11:	0f 1f 80 00 00 00 00 	nopl   0x0(%rax)
    1f18:	41 57                	push   %r15
    1f1a:	41 56                	push   %r14
    1f1c:	41 55                	push   %r13
    1f1e:	41 54                	push   %r12
    1f20:	55                   	push   %rbp
    1f21:	53                   	push   %rbx
    1f22:	48 83 ec 08          	sub    $0x8,%rsp
    1f26:	48 8d 2d d3 cb 01 00 	lea    0x1cbd3(%rip),%rbp        # 1eb00 <g_global_data>
    1f2d:	8b 85 08 01 00 00    	mov    0x108(%rbp),%eax
    1f33:	85 c0                	test   %eax,%eax
    1f35:	74 3f                	je     1f76 <_ZL25check_dynamic_entry_rangePvmtmP24dynamic_flags_attributes+0x76>
    1f37:	0f b7 85 10 01 00 00 	movzwl 0x110(%rbp),%eax
    1f3e:	66 39 c2             	cmp    %ax,%dx
    1f41:	74 47                	je     1f8a <_ZL25check_dynamic_entry_rangePvmtmP24dynamic_flags_attributes+0x8a>
    1f43:	41 89 d1             	mov    %edx,%r9d
    1f46:	31 c0                	xor    %eax,%eax
    1f48:	eb 1f                	jmp    1f69 <_ZL25check_dynamic_entry_rangePvmtmP24dynamic_flags_attributes+0x69>
    1f4a:	66 0f 1f 44 00 00    	nopw   0x0(%rax,%rax,1)
    1f50:	89 c3                	mov    %eax,%ebx
    1f52:	48 89 da             	mov    %rbx,%rdx
    1f55:	48 c1 e2 05          	shl    $0x5,%rdx
    1f59:	48 01 ea             	add    %rbp,%rdx
    1f5c:	0f b7 92 10 01 00 00 	movzwl 0x110(%rdx),%edx
    1f63:	66 41 39 d1          	cmp    %dx,%r9w
    1f67:	74 27                	je     1f90 <_ZL25check_dynamic_entry_rangePvmtmP24dynamic_flags_attributes+0x90>
    1f69:	8b 95 08 01 00 00    	mov    0x108(%rbp),%edx
    1f6f:	83 c0 01             	add    $0x1,%eax
    1f72:	39 c2                	cmp    %eax,%edx
    1f74:	77 da                	ja     1f50 <_ZL25check_dynamic_entry_rangePvmtmP24dynamic_flags_attributes+0x50>
    1f76:	b8 ff ff ff ff       	mov    $0xffffffff,%eax
    1f7b:	48 83 c4 08          	add    $0x8,%rsp
    1f7f:	5b                   	pop    %rbx
    1f80:	5d                   	pop    %rbp
    1f81:	41 5c                	pop    %r12
    1f83:	41 5d                	pop    %r13
    1f85:	41 5e                	pop    %r14
    1f87:	41 5f                	pop    %r15
    1f89:	c3                   	retq   
    1f8a:	31 db                	xor    %ebx,%ebx
    1f8c:	0f 1f 40 00          	nopl   0x0(%rax)
    1f90:	49 89 cc             	mov    %rcx,%r12
    1f93:	49 89 fe             	mov    %rdi,%r14
    1f96:	4d 89 c7             	mov    %r8,%r15
    1f99:	49 89 f5             	mov    %rsi,%r13
    1f9c:	e8 d2 b7 01 00       	callq  1d773 <get_enclave_base>
    1fa1:	48 89 da             	mov    %rbx,%rdx
    1fa4:	48 c1 e2 05          	shl    $0x5,%rdx
    1fa8:	48 01 ea             	add    %rbp,%rdx
    1fab:	48 8b 8a 18 01 00 00 	mov    0x118(%rdx),%rcx
    1fb2:	49 01 cc             	add    %rcx,%r12
    1fb5:	8b 8a 14 01 00 00    	mov    0x114(%rdx),%ecx
    1fbb:	4c 01 e0             	add    %r12,%rax
    1fbe:	4c 39 f0             	cmp    %r14,%rax
    1fc1:	77 b3                	ja     1f76 <_ZL25check_dynamic_entry_rangePvmtmP24dynamic_flags_attributes+0x76>
    1fc3:	49 c1 e5 0c          	shl    $0xc,%r13
    1fc7:	48 c1 e1 0c          	shl    $0xc,%rcx
    1fcb:	4d 01 ee             	add    %r13,%r14
    1fce:	48 01 c8             	add    %rcx,%rax
    1fd1:	49 39 c6             	cmp    %rax,%r14
    1fd4:	77 a0                	ja     1f76 <_ZL25check_dynamic_entry_rangePvmtmP24dynamic_flags_attributes+0x76>
    1fd6:	4d 85 ff             	test   %r15,%r15
    1fd9:	74 35                	je     2010 <_ZL25check_dynamic_entry_rangePvmtmP24dynamic_flags_attributes+0x110>
    1fdb:	48 83 c3 09          	add    $0x9,%rbx
    1fdf:	48 c1 e3 05          	shl    $0x5,%rbx
    1fe3:	48 01 eb             	add    %rbp,%rbx
    1fe6:	48 8b 43 08          	mov    0x8(%rbx),%rax
    1fea:	49 89 07             	mov    %rax,(%r15)
    1fed:	0f b7 82 12 01 00 00 	movzwl 0x112(%rdx),%eax
    1ff4:	66 41 89 47 08       	mov    %ax,0x8(%r15)
    1ff9:	48 83 c4 08          	add    $0x8,%rsp
    1ffd:	31 c0                	xor    %eax,%eax
    1fff:	5b                   	pop    %rbx
    2000:	5d                   	pop    %rbp
    2001:	41 5c                	pop    %r12
    2003:	41 5d                	pop    %r13
    2005:	41 5e                	pop    %r14
    2007:	41 5f                	pop    %r15
    2009:	c3                   	retq   
    200a:	66 0f 1f 44 00 00    	nopw   0x0(%rax,%rax,1)
    2010:	31 c0                	xor    %eax,%eax
    2012:	e9 64 ff ff ff       	jmpq   1f7b <_ZL25check_dynamic_entry_rangePvmtmP24dynamic_flags_attributes+0x7b>
    2017:	66 0f 1f 84 00 00 00 	nopw   0x0(%rax,%rax,1)
    201e:	00 00 

0000000000002020 <_ZL19sgx_accept_backwardmmm>:
    2020:	4c 8d 54 24 08       	lea    0x8(%rsp),%r10
    2025:	48 83 e4 c0          	and    $0xffffffffffffffc0,%rsp
    2029:	41 ff 72 f8          	pushq  -0x8(%r10)
    202d:	55                   	push   %rbp
    202e:	48 89 e5             	mov    %rsp,%rbp
    2031:	41 55                	push   %r13
    2033:	41 54                	push   %r12
    2035:	4c 8d a5 50 ff ff ff 	lea    -0xb0(%rbp),%r12
    203c:	41 52                	push   %r10
    203e:	53                   	push   %rbx
    203f:	48 89 d3             	mov    %rdx,%rbx
    2042:	49 89 f5             	mov    %rsi,%r13
    2045:	49 8d 54 24 38       	lea    0x38(%r12),%rdx
    204a:	48 81 ec 90 00 00 00 	sub    $0x90,%rsp
    2051:	48 89 bd 50 ff ff ff 	mov    %rdi,-0xb0(%rbp)
    2058:	64 48 8b 04 25 28 00 	mov    %fs:0x28,%rax
    205f:	00 00 
    2061:	48 89 45 c8          	mov    %rax,-0x38(%rbp)
    2065:	31 c0                	xor    %eax,%eax
    2067:	4c 89 e0             	mov    %r12,%rax
    206a:	66 0f 1f 44 00 00    	nopw   0x0(%rax,%rax,1)
    2070:	48 c7 40 08 00 00 00 	movq   $0x0,0x8(%rax)
    2077:	00 
    2078:	48 83 c0 08          	add    $0x8,%rax
    207c:	48 39 d0             	cmp    %rdx,%rax
    207f:	75 ef                	jne    2070 <_ZL19sgx_accept_backwardmmm+0x50>
    2081:	4c 39 eb             	cmp    %r13,%rbx
    2084:	76 25                	jbe    20ab <_ZL19sgx_accept_backwardmmm+0x8b>
    2086:	66 2e 0f 1f 84 00 00 	nopw   %cs:0x0(%rax,%rax,1)
    208d:	00 00 00 
    2090:	48 81 eb 00 10 00 00 	sub    $0x1000,%rbx
    2097:	4c 89 e7             	mov    %r12,%rdi
    209a:	48 89 de             	mov    %rbx,%rsi
    209d:	e8 ba b9 01 00       	callq  1da5c <do_eaccept>
    20a2:	85 c0                	test   %eax,%eax
    20a4:	75 2a                	jne    20d0 <_ZL19sgx_accept_backwardmmm+0xb0>
    20a6:	49 39 dd             	cmp    %rbx,%r13
    20a9:	72 e5                	jb     2090 <_ZL19sgx_accept_backwardmmm+0x70>
    20ab:	31 c0                	xor    %eax,%eax
    20ad:	48 8b 4d c8          	mov    -0x38(%rbp),%rcx
    20b1:	64 48 33 0c 25 28 00 	xor    %fs:0x28,%rcx
    20b8:	00 00 
    20ba:	75 19                	jne    20d5 <_ZL19sgx_accept_backwardmmm+0xb5>
    20bc:	48 81 c4 90 00 00 00 	add    $0x90,%rsp
    20c3:	5b                   	pop    %rbx
    20c4:	41 5a                	pop    %r10
    20c6:	41 5c                	pop    %r12
    20c8:	41 5d                	pop    %r13
    20ca:	5d                   	pop    %rbp
    20cb:	49 8d 62 f8          	lea    -0x8(%r10),%rsp
    20cf:	c3                   	retq   
    20d0:	e8 d5 b9 01 00       	callq  1daaa <abort>
    20d5:	e8 46 23 00 00       	callq  4420 <__stack_chk_fail>
    20da:	66 0f 1f 44 00 00    	nopw   0x0(%rax,%rax,1)

00000000000020e0 <_ZL19check_dynamic_rangePvmPmP24dynamic_flags_attributes>:
    20e0:	41 57                	push   %r15
    20e2:	41 56                	push   %r14
    20e4:	49 89 f6             	mov    %rsi,%r14
    20e7:	49 c1 e6 0c          	shl    $0xc,%r14
    20eb:	41 55                	push   %r13
    20ed:	41 54                	push   %r12
    20ef:	4c 89 f0             	mov    %r14,%rax
    20f2:	55                   	push   %rbp
    20f3:	53                   	push   %rbx
    20f4:	48 f7 d0             	not    %rax
    20f7:	48 83 ec 28          	sub    $0x28,%rsp
    20fb:	48 39 f8             	cmp    %rdi,%rax
    20fe:	0f 82 ff 00 00 00    	jb     2203 <_ZL19check_dynamic_rangePvmPmP24dynamic_flags_attributes+0x123>
    2104:	48 89 fb             	mov    %rdi,%rbx
    2107:	48 89 cd             	mov    %rcx,%rbp
    210a:	48 89 54 24 18       	mov    %rdx,0x18(%rsp)
    210f:	49 89 f4             	mov    %rsi,%r12
    2112:	e8 e9 12 00 00       	callq  3400 <get_heap_base>
    2117:	49 89 c5             	mov    %rax,%r13
    211a:	e8 71 13 00 00       	callq  3490 <get_heap_min_size>
    211f:	4d 8d 7c 05 00       	lea    0x0(%r13,%rax,1),%r15
    2124:	e8 f7 12 00 00       	callq  3420 <get_heap_size>
    2129:	49 89 c5             	mov    %rax,%r13
    212c:	e8 5f 13 00 00       	callq  3490 <get_heap_min_size>
    2131:	49 29 c5             	sub    %rax,%r13
    2134:	4c 39 fb             	cmp    %r15,%rbx
    2137:	72 37                	jb     2170 <_ZL19check_dynamic_rangePvmPmP24dynamic_flags_attributes+0x90>
    2139:	49 01 de             	add    %rbx,%r14
    213c:	4d 01 fd             	add    %r15,%r13
    213f:	4d 39 ee             	cmp    %r13,%r14
    2142:	77 2c                	ja     2170 <_ZL19check_dynamic_rangePvmPmP24dynamic_flags_attributes+0x90>
    2144:	48 85 ed             	test   %rbp,%rbp
    2147:	74 11                	je     215a <_ZL19check_dynamic_rangePvmPmP24dynamic_flags_attributes+0x7a>
    2149:	b8 08 00 00 00       	mov    $0x8,%eax
    214e:	48 c7 45 00 03 02 00 	movq   $0x203,0x0(%rbp)
    2155:	00 
    2156:	66 89 45 08          	mov    %ax,0x8(%rbp)
    215a:	31 c0                	xor    %eax,%eax
    215c:	48 83 c4 28          	add    $0x28,%rsp
    2160:	5b                   	pop    %rbx
    2161:	5d                   	pop    %rbp
    2162:	41 5c                	pop    %r12
    2164:	41 5d                	pop    %r13
    2166:	41 5e                	pop    %r14
    2168:	41 5f                	pop    %r15
    216a:	c3                   	retq   
    216b:	0f 1f 44 00 00       	nopl   0x0(%rax,%rax,1)
    2170:	31 c9                	xor    %ecx,%ecx
    2172:	49 89 e8             	mov    %rbp,%r8
    2175:	ba 07 00 00 00       	mov    $0x7,%edx
    217a:	4c 89 e6             	mov    %r12,%rsi
    217d:	48 89 df             	mov    %rbx,%rdi
    2180:	e8 7b fd ff ff       	callq  1f00 <_ZL25check_dynamic_entry_rangePvmtmP24dynamic_flags_attributes>
    2185:	85 c0                	test   %eax,%eax
    2187:	74 d1                	je     215a <_ZL19check_dynamic_rangePvmPmP24dynamic_flags_attributes+0x7a>
    2189:	48 8d 05 70 c9 01 00 	lea    0x1c970(%rip),%rax        # 1eb00 <g_global_data>
    2190:	8b 90 08 01 00 00    	mov    0x108(%rax),%edx
    2196:	85 d2                	test   %edx,%edx
    2198:	74 3e                	je     21d8 <_ZL19check_dynamic_rangePvmPmP24dynamic_flags_attributes+0xf8>
    219a:	0f b7 90 10 01 00 00 	movzwl 0x110(%rax),%edx
    21a1:	66 81 fa 13 10       	cmp    $0x1013,%dx
    21a6:	74 6f                	je     2217 <_ZL19check_dynamic_rangePvmPmP24dynamic_flags_attributes+0x137>
    21a8:	31 d2                	xor    %edx,%edx
    21aa:	eb 1f                	jmp    21cb <_ZL19check_dynamic_rangePvmPmP24dynamic_flags_attributes+0xeb>
    21ac:	0f 1f 40 00          	nopl   0x0(%rax)
    21b0:	41 89 d1             	mov    %edx,%r9d
    21b3:	4c 89 c9             	mov    %r9,%rcx
    21b6:	48 c1 e1 05          	shl    $0x5,%rcx
    21ba:	48 01 c1             	add    %rax,%rcx
    21bd:	0f b7 89 10 01 00 00 	movzwl 0x110(%rcx),%ecx
    21c4:	66 81 f9 13 10       	cmp    $0x1013,%cx
    21c9:	74 55                	je     2220 <_ZL19check_dynamic_rangePvmPmP24dynamic_flags_attributes+0x140>
    21cb:	8b 88 08 01 00 00    	mov    0x108(%rax),%ecx
    21d1:	83 c2 01             	add    $0x1,%edx
    21d4:	39 d1                	cmp    %edx,%ecx
    21d6:	77 d8                	ja     21b0 <_ZL19check_dynamic_rangePvmPmP24dynamic_flags_attributes+0xd0>
    21d8:	41 bd 0e 00 00 00    	mov    $0xe,%r13d
    21de:	31 c9                	xor    %ecx,%ecx
    21e0:	49 89 e8             	mov    %rbp,%r8
    21e3:	44 89 ea             	mov    %r13d,%edx
    21e6:	4c 89 e6             	mov    %r12,%rsi
    21e9:	48 89 df             	mov    %rbx,%rdi
    21ec:	e8 0f fd ff ff       	callq  1f00 <_ZL25check_dynamic_entry_rangePvmtmP24dynamic_flags_attributes>
    21f1:	85 c0                	test   %eax,%eax
    21f3:	0f 84 de 00 00 00    	je     22d7 <_ZL19check_dynamic_rangePvmPmP24dynamic_flags_attributes+0x1f7>
    21f9:	41 83 c5 01          	add    $0x1,%r13d
    21fd:	41 83 fd 13          	cmp    $0x13,%r13d
    2201:	75 db                	jne    21de <_ZL19check_dynamic_rangePvmPmP24dynamic_flags_attributes+0xfe>
    2203:	48 83 c4 28          	add    $0x28,%rsp
    2207:	b8 ff ff ff ff       	mov    $0xffffffff,%eax
    220c:	5b                   	pop    %rbx
    220d:	5d                   	pop    %rbp
    220e:	41 5c                	pop    %r12
    2210:	41 5d                	pop    %r13
    2212:	41 5e                	pop    %r14
    2214:	41 5f                	pop    %r15
    2216:	c3                   	retq   
    2217:	45 31 c9             	xor    %r9d,%r9d
    221a:	66 0f 1f 44 00 00    	nopw   0x0(%rax,%rax,1)
    2220:	49 c1 e1 05          	shl    $0x5,%r9
    2224:	c7 44 24 0c 0e 00 00 	movl   $0xe,0xc(%rsp)
    222b:	00 
    222c:	4e 8d 34 08          	lea    (%rax,%r9,1),%r14
    2230:	41 8b 86 14 01 00 00 	mov    0x114(%r14),%eax
    2237:	45 31 ff             	xor    %r15d,%r15d
    223a:	83 f8 ff             	cmp    $0xffffffff,%eax
    223d:	75 1c                	jne    225b <_ZL19check_dynamic_rangePvmPmP24dynamic_flags_attributes+0x17b>
    223f:	eb 7f                	jmp    22c0 <_ZL19check_dynamic_rangePvmPmP24dynamic_flags_attributes+0x1e0>
    2241:	0f 1f 80 00 00 00 00 	nopl   0x0(%rax)
    2248:	41 8b 86 14 01 00 00 	mov    0x114(%r14),%eax
    224f:	41 83 c7 01          	add    $0x1,%r15d
    2253:	83 c0 01             	add    $0x1,%eax
    2256:	44 39 f8             	cmp    %r15d,%eax
    2259:	76 65                	jbe    22c0 <_ZL19check_dynamic_rangePvmPmP24dynamic_flags_attributes+0x1e0>
    225b:	49 8b 8e 18 01 00 00 	mov    0x118(%r14),%rcx
    2262:	45 89 fd             	mov    %r15d,%r13d
    2265:	8b 54 24 0c          	mov    0xc(%rsp),%edx
    2269:	49 8d 86 18 01 00 00 	lea    0x118(%r14),%rax
    2270:	49 89 e8             	mov    %rbp,%r8
    2273:	4c 89 e6             	mov    %r12,%rsi
    2276:	48 89 df             	mov    %rbx,%rdi
    2279:	49 0f af cd          	imul   %r13,%rcx
    227d:	48 89 44 24 10       	mov    %rax,0x10(%rsp)
    2282:	e8 79 fc ff ff       	callq  1f00 <_ZL25check_dynamic_entry_rangePvmtmP24dynamic_flags_attributes>
    2287:	85 c0                	test   %eax,%eax
    2289:	75 bd                	jne    2248 <_ZL19check_dynamic_rangePvmPmP24dynamic_flags_attributes+0x168>
    228b:	48 8b 5c 24 18       	mov    0x18(%rsp),%rbx
    2290:	48 85 db             	test   %rbx,%rbx
    2293:	0f 84 c1 fe ff ff    	je     215a <_ZL19check_dynamic_rangePvmPmP24dynamic_flags_attributes+0x7a>
    2299:	48 8b 74 24 10       	mov    0x10(%rsp),%rsi
    229e:	48 8b 16             	mov    (%rsi),%rdx
    22a1:	4c 0f af ea          	imul   %rdx,%r13
    22a5:	4c 89 2b             	mov    %r13,(%rbx)
    22a8:	48 83 c4 28          	add    $0x28,%rsp
    22ac:	5b                   	pop    %rbx
    22ad:	5d                   	pop    %rbp
    22ae:	41 5c                	pop    %r12
    22b0:	41 5d                	pop    %r13
    22b2:	41 5e                	pop    %r14
    22b4:	41 5f                	pop    %r15
    22b6:	c3                   	retq   
    22b7:	66 0f 1f 84 00 00 00 	nopw   0x0(%rax,%rax,1)
    22be:	00 00 
    22c0:	83 44 24 0c 01       	addl   $0x1,0xc(%rsp)
    22c5:	8b 44 24 0c          	mov    0xc(%rsp),%eax
    22c9:	83 f8 13             	cmp    $0x13,%eax
    22cc:	0f 85 5e ff ff ff    	jne    2230 <_ZL19check_dynamic_rangePvmPmP24dynamic_flags_attributes+0x150>
    22d2:	e9 2c ff ff ff       	jmpq   2203 <_ZL19check_dynamic_rangePvmPmP24dynamic_flags_attributes+0x123>
    22d7:	48 8b 5c 24 18       	mov    0x18(%rsp),%rbx
    22dc:	48 85 db             	test   %rbx,%rbx
    22df:	0f 84 75 fe ff ff    	je     215a <_ZL19check_dynamic_rangePvmPmP24dynamic_flags_attributes+0x7a>
    22e5:	48 c7 03 00 00 00 00 	movq   $0x0,(%rbx)
    22ec:	e9 6b fe ff ff       	jmpq   215c <_ZL19check_dynamic_rangePvmPmP24dynamic_flags_attributes+0x7c>
    22f1:	66 2e 0f 1f 84 00 00 	nopw   %cs:0x0(%rax,%rax,1)
    22f8:	00 00 00 
    22fb:	0f 1f 44 00 00       	nopl   0x0(%rax,%rax,1)

0000000000002300 <is_dynamic_thread>:
    2300:	48 83 ec 28          	sub    $0x28,%rsp
    2304:	64 48 8b 04 25 28 00 	mov    %fs:0x28,%rax
    230b:	00 00 
    230d:	48 89 44 24 18       	mov    %rax,0x18(%rsp)
    2312:	31 c0                	xor    %eax,%eax
    2314:	48 85 ff             	test   %rdi,%rdi
    2317:	74 13                	je     232c <is_dynamic_thread+0x2c>
    2319:	31 d2                	xor    %edx,%edx
    231b:	48 89 e1             	mov    %rsp,%rcx
    231e:	be 01 00 00 00       	mov    $0x1,%esi
    2323:	e8 b8 fd ff ff       	callq  20e0 <_ZL19check_dynamic_rangePvmPmP24dynamic_flags_attributes>
    2328:	85 c0                	test   %eax,%eax
    232a:	74 1c                	je     2348 <is_dynamic_thread+0x48>
    232c:	31 c0                	xor    %eax,%eax
    232e:	48 8b 54 24 18       	mov    0x18(%rsp),%rdx
    2333:	64 48 33 14 25 28 00 	xor    %fs:0x28,%rdx
    233a:	00 00 
    233c:	75 1b                	jne    2359 <is_dynamic_thread+0x59>
    233e:	48 83 c4 28          	add    $0x28,%rsp
    2342:	c3                   	retq   
    2343:	0f 1f 44 00 00       	nopl   0x0(%rax,%rax,1)
    2348:	48 81 3c 24 00 01 00 	cmpq   $0x100,(%rsp)
    234f:	00 
    2350:	75 da                	jne    232c <is_dynamic_thread+0x2c>
    2352:	b8 01 00 00 00       	mov    $0x1,%eax
    2357:	eb d5                	jmp    232e <is_dynamic_thread+0x2e>
    2359:	e8 c2 20 00 00       	callq  4420 <__stack_chk_fail>
    235e:	66 90                	xchg   %ax,%ax

0000000000002360 <get_dynamic_stack_max_page>:
    2360:	48 8d 35 99 c7 01 00 	lea    0x1c799(%rip),%rsi        # 1eb00 <g_global_data>
    2367:	8b 86 08 01 00 00    	mov    0x108(%rsi),%eax
    236d:	85 c0                	test   %eax,%eax
    236f:	74 3f                	je     23b0 <get_dynamic_stack_max_page+0x50>
    2371:	0f b7 86 10 01 00 00 	movzwl 0x110(%rsi),%eax
    2378:	66 83 f8 07          	cmp    $0x7,%ax
    237c:	74 34                	je     23b2 <get_dynamic_stack_max_page+0x52>
    237e:	31 c0                	xor    %eax,%eax
    2380:	eb 1f                	jmp    23a1 <get_dynamic_stack_max_page+0x41>
    2382:	66 0f 1f 44 00 00    	nopw   0x0(%rax,%rax,1)
    2388:	89 c1                	mov    %eax,%ecx
    238a:	48 89 ca             	mov    %rcx,%rdx
    238d:	48 c1 e2 05          	shl    $0x5,%rdx
    2391:	48 01 f2             	add    %rsi,%rdx
    2394:	0f b7 92 10 01 00 00 	movzwl 0x110(%rdx),%edx
    239b:	66 83 fa 07          	cmp    $0x7,%dx
    239f:	74 13                	je     23b4 <get_dynamic_stack_max_page+0x54>
    23a1:	8b 96 08 01 00 00    	mov    0x108(%rsi),%edx
    23a7:	83 c0 01             	add    $0x1,%eax
    23aa:	39 c2                	cmp    %eax,%edx
    23ac:	77 da                	ja     2388 <get_dynamic_stack_max_page+0x28>
    23ae:	31 c0                	xor    %eax,%eax
    23b0:	f3 c3                	repz retq 
    23b2:	31 c9                	xor    %ecx,%ecx
    23b4:	48 c1 e1 05          	shl    $0x5,%rcx
    23b8:	48 01 f1             	add    %rsi,%rcx
    23bb:	8b 81 14 01 00 00    	mov    0x114(%rcx),%eax
    23c1:	c3                   	retq   
    23c2:	66 2e 0f 1f 84 00 00 	nopw   %cs:0x0(%rax,%rax,1)
    23c9:	00 00 00 
    23cc:	0f 1f 40 00          	nopl   0x0(%rax)

00000000000023d0 <sgx_accept_forward>:
    23d0:	4c 8d 54 24 08       	lea    0x8(%rsp),%r10
    23d5:	48 83 e4 c0          	and    $0xffffffffffffffc0,%rsp
    23d9:	41 ff 72 f8          	pushq  -0x8(%r10)
    23dd:	55                   	push   %rbp
    23de:	48 89 e5             	mov    %rsp,%rbp
    23e1:	41 55                	push   %r13
    23e3:	41 54                	push   %r12
    23e5:	4c 8d a5 50 ff ff ff 	lea    -0xb0(%rbp),%r12
    23ec:	41 52                	push   %r10
    23ee:	53                   	push   %rbx
    23ef:	49 89 d5             	mov    %rdx,%r13
    23f2:	48 89 f3             	mov    %rsi,%rbx
    23f5:	49 8d 54 24 38       	lea    0x38(%r12),%rdx
    23fa:	48 81 ec 90 00 00 00 	sub    $0x90,%rsp
    2401:	48 89 bd 50 ff ff ff 	mov    %rdi,-0xb0(%rbp)
    2408:	64 48 8b 04 25 28 00 	mov    %fs:0x28,%rax
    240f:	00 00 
    2411:	48 89 45 c8          	mov    %rax,-0x38(%rbp)
    2415:	31 c0                	xor    %eax,%eax
    2417:	4c 89 e0             	mov    %r12,%rax
    241a:	66 0f 1f 44 00 00    	nopw   0x0(%rax,%rax,1)
    2420:	48 c7 40 08 00 00 00 	movq   $0x0,0x8(%rax)
    2427:	00 
    2428:	48 83 c0 08          	add    $0x8,%rax
    242c:	48 39 d0             	cmp    %rdx,%rax
    242f:	75 ef                	jne    2420 <sgx_accept_forward+0x50>
    2431:	4c 39 eb             	cmp    %r13,%rbx
    2434:	73 25                	jae    245b <sgx_accept_forward+0x8b>
    2436:	66 2e 0f 1f 84 00 00 	nopw   %cs:0x0(%rax,%rax,1)
    243d:	00 00 00 
    2440:	48 89 de             	mov    %rbx,%rsi
    2443:	4c 89 e7             	mov    %r12,%rdi
    2446:	e8 11 b6 01 00       	callq  1da5c <do_eaccept>
    244b:	85 c0                	test   %eax,%eax
    244d:	75 31                	jne    2480 <sgx_accept_forward+0xb0>
    244f:	48 81 c3 00 10 00 00 	add    $0x1000,%rbx
    2456:	49 39 dd             	cmp    %rbx,%r13
    2459:	77 e5                	ja     2440 <sgx_accept_forward+0x70>
    245b:	31 c0                	xor    %eax,%eax
    245d:	48 8b 4d c8          	mov    -0x38(%rbp),%rcx
    2461:	64 48 33 0c 25 28 00 	xor    %fs:0x28,%rcx
    2468:	00 00 
    246a:	75 19                	jne    2485 <sgx_accept_forward+0xb5>
    246c:	48 81 c4 90 00 00 00 	add    $0x90,%rsp
    2473:	5b                   	pop    %rbx
    2474:	41 5a                	pop    %r10
    2476:	41 5c                	pop    %r12
    2478:	41 5d                	pop    %r13
    247a:	5d                   	pop    %rbp
    247b:	49 8d 62 f8          	lea    -0x8(%r10),%rsp
    247f:	c3                   	retq   
    2480:	e8 25 b6 01 00       	callq  1daaa <abort>
    2485:	e8 96 1f 00 00       	callq  4420 <__stack_chk_fail>
    248a:	66 0f 1f 44 00 00    	nopw   0x0(%rax,%rax,1)

0000000000002490 <_Z18accept_post_removePVK9_layout_tS1_m>:
    2490:	48 39 f7             	cmp    %rsi,%rdi
    2493:	0f 83 ca 00 00 00    	jae    2563 <_Z18accept_post_removePVK9_layout_tS1_m+0xd3>
    2499:	41 56                	push   %r14
    249b:	41 55                	push   %r13
    249d:	41 54                	push   %r12
    249f:	49 89 fc             	mov    %rdi,%r12
    24a2:	55                   	push   %rbp
    24a3:	48 89 d5             	mov    %rdx,%rbp
    24a6:	53                   	push   %rbx
    24a7:	48 89 f3             	mov    %rsi,%rbx
    24aa:	eb 43                	jmp    24ef <_Z18accept_post_removePVK9_layout_tS1_m+0x5f>
    24ac:	0f 1f 40 00          	nopl   0x0(%rax)
    24b0:	41 0f b7 44 24 02    	movzwl 0x2(%r12),%eax
    24b6:	a8 10                	test   $0x10,%al
    24b8:	74 3f                	je     24f9 <_Z18accept_post_removePVK9_layout_tS1_m+0x69>
    24ba:	49 8b 74 24 08       	mov    0x8(%r12),%rsi
    24bf:	4c 8d 2c 2e          	lea    (%rsi,%rbp,1),%r13
    24c3:	e8 ab b2 01 00       	callq  1d773 <get_enclave_base>
    24c8:	41 8b 54 24 04       	mov    0x4(%r12),%edx
    24cd:	4a 8d 34 28          	lea    (%rax,%r13,1),%rsi
    24d1:	bf 10 04 00 00       	mov    $0x410,%edi
    24d6:	48 c1 e2 0c          	shl    $0xc,%rdx
    24da:	48 01 f2             	add    %rsi,%rdx
    24dd:	e8 ee fe ff ff       	callq  23d0 <sgx_accept_forward>
    24e2:	85 c0                	test   %eax,%eax
    24e4:	75 69                	jne    254f <_Z18accept_post_removePVK9_layout_tS1_m+0xbf>
    24e6:	49 83 c4 20          	add    $0x20,%r12
    24ea:	4c 39 e3             	cmp    %r12,%rbx
    24ed:	76 69                	jbe    2558 <_Z18accept_post_removePVK9_layout_tS1_m+0xc8>
    24ef:	41 0f b7 04 24       	movzwl (%r12),%eax
    24f4:	f6 c4 10             	test   $0x10,%ah
    24f7:	74 b7                	je     24b0 <_Z18accept_post_removePVK9_layout_tS1_m+0x20>
    24f9:	41 0f b7 04 24       	movzwl (%r12),%eax
    24fe:	f6 c4 10             	test   $0x10,%ah
    2501:	74 e3                	je     24e6 <_Z18accept_post_removePVK9_layout_tS1_m+0x56>
    2503:	41 8b 44 24 04       	mov    0x4(%r12),%eax
    2508:	45 31 f6             	xor    %r14d,%r14d
    250b:	45 31 ed             	xor    %r13d,%r13d
    250e:	85 c0                	test   %eax,%eax
    2510:	75 14                	jne    2526 <_Z18accept_post_removePVK9_layout_tS1_m+0x96>
    2512:	eb d2                	jmp    24e6 <_Z18accept_post_removePVK9_layout_tS1_m+0x56>
    2514:	0f 1f 40 00          	nopl   0x0(%rax)
    2518:	41 8b 44 24 04       	mov    0x4(%r12),%eax
    251d:	41 83 c6 01          	add    $0x1,%r14d
    2521:	44 39 f0             	cmp    %r14d,%eax
    2524:	76 c0                	jbe    24e6 <_Z18accept_post_removePVK9_layout_tS1_m+0x56>
    2526:	49 8b 44 24 08       	mov    0x8(%r12),%rax
    252b:	41 0f b7 7c 24 02    	movzwl 0x2(%r12),%edi
    2531:	4c 89 e6             	mov    %r12,%rsi
    2534:	49 01 c5             	add    %rax,%r13
    2537:	f7 df                	neg    %edi
    2539:	4c 89 ea             	mov    %r13,%rdx
    253c:	48 63 ff             	movslq %edi,%rdi
    253f:	48 c1 e7 05          	shl    $0x5,%rdi
    2543:	4c 01 e7             	add    %r12,%rdi
    2546:	e8 45 ff ff ff       	callq  2490 <_Z18accept_post_removePVK9_layout_tS1_m>
    254b:	85 c0                	test   %eax,%eax
    254d:	74 c9                	je     2518 <_Z18accept_post_removePVK9_layout_tS1_m+0x88>
    254f:	5b                   	pop    %rbx
    2550:	5d                   	pop    %rbp
    2551:	41 5c                	pop    %r12
    2553:	41 5d                	pop    %r13
    2555:	41 5e                	pop    %r14
    2557:	c3                   	retq   
    2558:	5b                   	pop    %rbx
    2559:	31 c0                	xor    %eax,%eax
    255b:	5d                   	pop    %rbp
    255c:	41 5c                	pop    %r12
    255e:	41 5d                	pop    %r13
    2560:	41 5e                	pop    %r14
    2562:	c3                   	retq   
    2563:	31 c0                	xor    %eax,%eax
    2565:	c3                   	retq   
    2566:	66 2e 0f 1f 84 00 00 	nopw   %cs:0x0(%rax,%rax,1)
    256d:	00 00 00 

0000000000002570 <apply_pages_within_exception>:
    2570:	4c 8d 54 24 08       	lea    0x8(%rsp),%r10
    2575:	48 83 e4 c0          	and    $0xffffffffffffffc0,%rsp
    2579:	41 ff 72 f8          	pushq  -0x8(%r10)
    257d:	55                   	push   %rbp
    257e:	48 89 e5             	mov    %rsp,%rbp
    2581:	41 57                	push   %r15
    2583:	41 56                	push   %r14
    2585:	41 55                	push   %r13
    2587:	41 54                	push   %r12
    2589:	41 52                	push   %r10
    258b:	53                   	push   %rbx
    258c:	48 83 c4 80          	add    $0xffffffffffffff80,%rsp
    2590:	64 48 8b 04 25 28 00 	mov    %fs:0x28,%rax
    2597:	00 00 
    2599:	48 89 45 c8          	mov    %rax,-0x38(%rbp)
    259d:	31 c0                	xor    %eax,%eax
    259f:	48 85 ff             	test   %rdi,%rdi
    25a2:	0f 84 9a 00 00 00    	je     2642 <apply_pages_within_exception+0xd2>
    25a8:	31 c9                	xor    %ecx,%ecx
    25aa:	31 d2                	xor    %edx,%edx
    25ac:	49 89 ff             	mov    %rdi,%r15
    25af:	49 89 f4             	mov    %rsi,%r12
    25b2:	e8 29 fb ff ff       	callq  20e0 <_ZL19check_dynamic_rangePvmPmP24dynamic_flags_attributes>
    25b7:	85 c0                	test   %eax,%eax
    25b9:	41 89 c6             	mov    %eax,%r14d
    25bc:	0f 85 80 00 00 00    	jne    2642 <apply_pages_within_exception+0xd2>
    25c2:	4c 8d ad 50 ff ff ff 	lea    -0xb0(%rbp),%r13
    25c9:	49 c1 e4 0c          	shl    $0xc,%r12
    25cd:	4c 89 fb             	mov    %r15,%rbx
    25d0:	4d 01 fc             	add    %r15,%r12
    25d3:	48 c7 85 50 ff ff ff 	movq   $0x20b,-0xb0(%rbp)
    25da:	0b 02 00 00 
    25de:	49 8d 55 38          	lea    0x38(%r13),%rdx
    25e2:	4c 89 e8             	mov    %r13,%rax
    25e5:	0f 1f 00             	nopl   (%rax)
    25e8:	48 c7 40 08 00 00 00 	movq   $0x0,0x8(%rax)
    25ef:	00 
    25f0:	48 83 c0 08          	add    $0x8,%rax
    25f4:	48 39 d0             	cmp    %rdx,%rax
    25f7:	75 ef                	jne    25e8 <apply_pages_within_exception+0x78>
    25f9:	4d 39 e7             	cmp    %r12,%r15
    25fc:	73 1d                	jae    261b <apply_pages_within_exception+0xab>
    25fe:	66 90                	xchg   %ax,%ax
    2600:	48 89 de             	mov    %rbx,%rsi
    2603:	4c 89 ef             	mov    %r13,%rdi
    2606:	e8 51 b4 01 00       	callq  1da5c <do_eaccept>
    260b:	85 c0                	test   %eax,%eax
    260d:	75 3b                	jne    264a <apply_pages_within_exception+0xda>
    260f:	48 81 c3 00 10 00 00 	add    $0x1000,%rbx
    2616:	49 39 dc             	cmp    %rbx,%r12
    2619:	77 e5                	ja     2600 <apply_pages_within_exception+0x90>
    261b:	48 8b 4d c8          	mov    -0x38(%rbp),%rcx
    261f:	64 48 33 0c 25 28 00 	xor    %fs:0x28,%rcx
    2626:	00 00 
    2628:	44 89 f0             	mov    %r14d,%eax
    262b:	75 22                	jne    264f <apply_pages_within_exception+0xdf>
    262d:	48 83 ec 80          	sub    $0xffffffffffffff80,%rsp
    2631:	5b                   	pop    %rbx
    2632:	41 5a                	pop    %r10
    2634:	41 5c                	pop    %r12
    2636:	41 5d                	pop    %r13
    2638:	41 5e                	pop    %r14
    263a:	41 5f                	pop    %r15
    263c:	5d                   	pop    %rbp
    263d:	49 8d 62 f8          	lea    -0x8(%r10),%rsp
    2641:	c3                   	retq   
    2642:	41 be ff ff ff ff    	mov    $0xffffffff,%r14d
    2648:	eb d1                	jmp    261b <apply_pages_within_exception+0xab>
    264a:	e8 5b b4 01 00       	callq  1daaa <abort>
    264f:	e8 cc 1d 00 00       	callq  4420 <__stack_chk_fail>
    2654:	66 2e 0f 1f 84 00 00 	nopw   %cs:0x0(%rax,%rax,1)
    265b:	00 00 00 
    265e:	66 90                	xchg   %ax,%ax

0000000000002660 <apply_EPC_pages>:
    2660:	55                   	push   %rbp
    2661:	53                   	push   %rbx
    2662:	48 83 ec 28          	sub    $0x28,%rsp
    2666:	64 48 8b 04 25 28 00 	mov    %fs:0x28,%rax
    266d:	00 00 
    266f:	48 89 44 24 18       	mov    %rax,0x18(%rsp)
    2674:	31 c0                	xor    %eax,%eax
    2676:	48 85 ff             	test   %rdi,%rdi
    2679:	74 55                	je     26d0 <apply_EPC_pages+0x70>
    267b:	31 d2                	xor    %edx,%edx
    267d:	48 89 e1             	mov    %rsp,%rcx
    2680:	48 89 fd             	mov    %rdi,%rbp
    2683:	48 89 f3             	mov    %rsi,%rbx
    2686:	e8 55 fa ff ff       	callq  20e0 <_ZL19check_dynamic_rangePvmPmP24dynamic_flags_attributes>
    268b:	85 c0                	test   %eax,%eax
    268d:	75 41                	jne    26d0 <apply_EPC_pages+0x70>
    268f:	48 c1 e3 0c          	shl    $0xc,%rbx
    2693:	f6 44 24 08 40       	testb  $0x40,0x8(%rsp)
    2698:	48 89 ee             	mov    %rbp,%rsi
    269b:	48 8d 14 2b          	lea    (%rbx,%rbp,1),%rdx
    269f:	bf 0b 02 00 00       	mov    $0x20b,%edi
    26a4:	75 22                	jne    26c8 <apply_EPC_pages+0x68>
    26a6:	e8 75 f9 ff ff       	callq  2020 <_ZL19sgx_accept_backwardmmm>
    26ab:	48 8b 74 24 18       	mov    0x18(%rsp),%rsi
    26b0:	64 48 33 34 25 28 00 	xor    %fs:0x28,%rsi
    26b7:	00 00 
    26b9:	75 1c                	jne    26d7 <apply_EPC_pages+0x77>
    26bb:	48 83 c4 28          	add    $0x28,%rsp
    26bf:	5b                   	pop    %rbx
    26c0:	5d                   	pop    %rbp
    26c1:	c3                   	retq   
    26c2:	66 0f 1f 44 00 00    	nopw   0x0(%rax,%rax,1)
    26c8:	e8 03 fd ff ff       	callq  23d0 <sgx_accept_forward>
    26cd:	eb dc                	jmp    26ab <apply_EPC_pages+0x4b>
    26cf:	90                   	nop
    26d0:	b8 ff ff ff ff       	mov    $0xffffffff,%eax
    26d5:	eb d4                	jmp    26ab <apply_EPC_pages+0x4b>
    26d7:	e8 44 1d 00 00       	callq  4420 <__stack_chk_fail>
    26dc:	0f 1f 40 00          	nopl   0x0(%rax)

00000000000026e0 <trim_EPC_pages>:
    26e0:	48 85 ff             	test   %rdi,%rdi
    26e3:	74 6a                	je     274f <trim_EPC_pages+0x6f>
    26e5:	55                   	push   %rbp
    26e6:	53                   	push   %rbx
    26e7:	31 c9                	xor    %ecx,%ecx
    26e9:	31 d2                	xor    %edx,%edx
    26eb:	48 89 f5             	mov    %rsi,%rbp
    26ee:	48 89 fb             	mov    %rdi,%rbx
    26f1:	48 83 ec 08          	sub    $0x8,%rsp
    26f5:	e8 e6 f9 ff ff       	callq  20e0 <_ZL19check_dynamic_rangePvmPmP24dynamic_flags_attributes>
    26fa:	85 c0                	test   %eax,%eax
    26fc:	75 4a                	jne    2748 <trim_EPC_pages+0x68>
    26fe:	48 c1 e5 0c          	shl    $0xc,%rbp
    2702:	48 89 df             	mov    %rbx,%rdi
    2705:	48 01 dd             	add    %rbx,%rbp
    2708:	48 89 ee             	mov    %rbp,%rsi
    270b:	e8 50 0c 00 00       	callq  3360 <trim_range_ocall>
    2710:	48 89 ea             	mov    %rbp,%rdx
    2713:	48 89 de             	mov    %rbx,%rsi
    2716:	bf 10 04 00 00       	mov    $0x410,%edi
    271b:	e8 b0 fc ff ff       	callq  23d0 <sgx_accept_forward>
    2720:	48 39 eb             	cmp    %rbp,%rbx
    2723:	73 17                	jae    273c <trim_EPC_pages+0x5c>
    2725:	0f 1f 00             	nopl   (%rax)
    2728:	48 89 df             	mov    %rbx,%rdi
    272b:	48 81 c3 00 10 00 00 	add    $0x1000,%rbx
    2732:	e8 89 0c 00 00       	callq  33c0 <trim_range_commit_ocall>
    2737:	48 39 dd             	cmp    %rbx,%rbp
    273a:	77 ec                	ja     2728 <trim_EPC_pages+0x48>
    273c:	48 83 c4 08          	add    $0x8,%rsp
    2740:	5b                   	pop    %rbx
    2741:	5d                   	pop    %rbp
    2742:	c3                   	retq   
    2743:	0f 1f 44 00 00       	nopl   0x0(%rax,%rax,1)
    2748:	b8 ff ff ff ff       	mov    $0xffffffff,%eax
    274d:	eb ed                	jmp    273c <trim_EPC_pages+0x5c>
    274f:	b8 ff ff ff ff       	mov    $0xffffffff,%eax
    2754:	c3                   	retq   
    2755:	66 2e 0f 1f 84 00 00 	nopw   %cs:0x0(%rax,%rax,1)
    275c:	00 00 00 
    275f:	90                   	nop

0000000000002760 <do_add_thread>:
    2760:	41 57                	push   %r15
    2762:	41 56                	push   %r14
    2764:	41 55                	push   %r13
    2766:	41 54                	push   %r12
    2768:	55                   	push   %rbp
    2769:	53                   	push   %rbx
    276a:	48 89 fb             	mov    %rdi,%rbx
    276d:	48 83 ec 18          	sub    $0x18,%rsp
    2771:	64 48 8b 04 25 28 00 	mov    %fs:0x28,%rax
    2778:	00 00 
    277a:	48 89 44 24 08       	mov    %rax,0x8(%rsp)
    277f:	31 c0                	xor    %eax,%eax
    2781:	48 c7 04 24 00 00 00 	movq   $0x0,(%rsp)
    2788:	00 
    2789:	e8 e5 af 01 00       	callq  1d773 <get_enclave_base>
    278e:	31 c9                	xor    %ecx,%ecx
    2790:	48 89 e2             	mov    %rsp,%rdx
    2793:	be 01 00 00 00       	mov    $0x1,%esi
    2798:	48 89 df             	mov    %rbx,%rdi
    279b:	48 89 c5             	mov    %rax,%rbp
    279e:	e8 3d f9 ff ff       	callq  20e0 <_ZL19check_dynamic_rangePvmPmP24dynamic_flags_attributes>
    27a3:	85 c0                	test   %eax,%eax
    27a5:	75 50                	jne    27f7 <do_add_thread+0x97>
    27a7:	4c 8d 2d 52 c3 01 00 	lea    0x1c352(%rip),%r13        # 1eb00 <g_global_data>
    27ae:	41 8b 85 08 01 00 00 	mov    0x108(%r13),%eax
    27b5:	85 c0                	test   %eax,%eax
    27b7:	74 3e                	je     27f7 <do_add_thread+0x97>
    27b9:	41 0f b7 85 10 01 00 	movzwl 0x110(%r13),%eax
    27c0:	00 
    27c1:	66 83 f8 0e          	cmp    $0xe,%ax
    27c5:	74 58                	je     281f <do_add_thread+0xbf>
    27c7:	31 c0                	xor    %eax,%eax
    27c9:	eb 1e                	jmp    27e9 <do_add_thread+0x89>
    27cb:	0f 1f 44 00 00       	nopl   0x0(%rax,%rax,1)
    27d0:	89 c1                	mov    %eax,%ecx
    27d2:	48 89 ca             	mov    %rcx,%rdx
    27d5:	48 c1 e2 05          	shl    $0x5,%rdx
    27d9:	4c 01 ea             	add    %r13,%rdx
    27dc:	0f b7 92 10 01 00 00 	movzwl 0x110(%rdx),%edx
    27e3:	66 83 fa 0e          	cmp    $0xe,%dx
    27e7:	74 3f                	je     2828 <do_add_thread+0xc8>
    27e9:	41 8b 95 08 01 00 00 	mov    0x108(%r13),%edx
    27f0:	83 c0 01             	add    $0x1,%eax
    27f3:	39 c2                	cmp    %eax,%edx
    27f5:	77 d9                	ja     27d0 <do_add_thread+0x70>
    27f7:	b8 01 00 00 00       	mov    $0x1,%eax
    27fc:	48 8b 5c 24 08       	mov    0x8(%rsp),%rbx
    2801:	64 48 33 1c 25 28 00 	xor    %fs:0x28,%rbx
    2808:	00 00 
    280a:	0f 85 37 01 00 00    	jne    2947 <do_add_thread+0x1e7>
    2810:	48 83 c4 18          	add    $0x18,%rsp
    2814:	5b                   	pop    %rbx
    2815:	5d                   	pop    %rbp
    2816:	41 5c                	pop    %r12
    2818:	41 5d                	pop    %r13
    281a:	41 5e                	pop    %r14
    281c:	41 5f                	pop    %r15
    281e:	c3                   	retq   
    281f:	31 c9                	xor    %ecx,%ecx
    2821:	0f 1f 80 00 00 00 00 	nopl   0x0(%rax)
    2828:	48 c1 e1 05          	shl    $0x5,%rcx
    282c:	41 bf 0e 00 00 00    	mov    $0xe,%r15d
    2832:	4c 01 e9             	add    %r13,%rcx
    2835:	4c 8b b1 18 01 00 00 	mov    0x118(%rcx),%r14
    283c:	4c 03 34 24          	add    (%rsp),%r14
    2840:	4e 8d 64 35 00       	lea    0x0(%rbp,%r14,1),%r12
    2845:	4c 39 e3             	cmp    %r12,%rbx
    2848:	75 ad                	jne    27f7 <do_add_thread+0x97>
    284a:	66 0f 1f 44 00 00    	nopw   0x0(%rax,%rax,1)
    2850:	41 8b 85 08 01 00 00 	mov    0x108(%r13),%eax
    2857:	85 c0                	test   %eax,%eax
    2859:	74 44                	je     289f <do_add_thread+0x13f>
    285b:	41 0f b7 85 10 01 00 	movzwl 0x110(%r13),%eax
    2862:	00 
    2863:	66 41 39 c7          	cmp    %ax,%r15w
    2867:	0f 84 91 00 00 00    	je     28fe <do_add_thread+0x19e>
    286d:	31 c0                	xor    %eax,%eax
    286f:	eb 20                	jmp    2891 <do_add_thread+0x131>
    2871:	0f 1f 80 00 00 00 00 	nopl   0x0(%rax)
    2878:	89 c1                	mov    %eax,%ecx
    287a:	48 89 ca             	mov    %rcx,%rdx
    287d:	48 c1 e2 05          	shl    $0x5,%rdx
    2881:	4c 01 ea             	add    %r13,%rdx
    2884:	0f b7 92 10 01 00 00 	movzwl 0x110(%rdx),%edx
    288b:	66 41 39 d7          	cmp    %dx,%r15w
    288f:	74 6f                	je     2900 <do_add_thread+0x1a0>
    2891:	41 8b 95 08 01 00 00 	mov    0x108(%r13),%edx
    2898:	83 c0 01             	add    $0x1,%eax
    289b:	39 c2                	cmp    %eax,%edx
    289d:	77 d9                	ja     2878 <do_add_thread+0x118>
    289f:	41 83 c7 01          	add    $0x1,%r15d
    28a3:	66 41 83 ff 13       	cmp    $0x13,%r15w
    28a8:	75 a6                	jne    2850 <do_add_thread+0xf0>
    28aa:	49 8d b5 c0 00 00 00 	lea    0xc0(%r13),%rsi
    28b1:	ba 48 00 00 00       	mov    $0x48,%edx
    28b6:	48 89 df             	mov    %rbx,%rdi
    28b9:	e8 c2 4d 00 00       	callq  7680 <memcpy>
    28be:	4c 01 73 10          	add    %r14,0x10(%rbx)
    28c2:	4c 01 73 30          	add    %r14,0x30(%rbx)
    28c6:	31 ff                	xor    %edi,%edi
    28c8:	48 89 de             	mov    %rbx,%rsi
    28cb:	4c 01 73 38          	add    %r14,0x38(%rbx)
    28cf:	e8 4c 09 00 00       	callq  3220 <sgx_ocall>
    28d4:	85 c0                	test   %eax,%eax
    28d6:	0f 85 1b ff ff ff    	jne    27f7 <do_add_thread+0x97>
    28dc:	49 8d 94 24 00 10 00 	lea    0x1000(%r12),%rdx
    28e3:	00 
    28e4:	4c 89 e6             	mov    %r12,%rsi
    28e7:	bf 10 01 00 00       	mov    $0x110,%edi
    28ec:	e8 2f f7 ff ff       	callq  2020 <_ZL19sgx_accept_backwardmmm>
    28f1:	85 c0                	test   %eax,%eax
    28f3:	0f 95 c0             	setne  %al
    28f6:	0f b6 c0             	movzbl %al,%eax
    28f9:	e9 fe fe ff ff       	jmpq   27fc <do_add_thread+0x9c>
    28fe:	31 c9                	xor    %ecx,%ecx
    2900:	48 c1 e1 05          	shl    $0x5,%rcx
    2904:	4c 01 e9             	add    %r13,%rcx
    2907:	0f b7 81 12 01 00 00 	movzwl 0x112(%rcx),%eax
    290e:	a8 20                	test   $0x20,%al
    2910:	74 8d                	je     289f <do_add_thread+0x13f>
    2912:	8b b1 14 01 00 00    	mov    0x114(%rcx),%esi
    2918:	48 8b b9 18 01 00 00 	mov    0x118(%rcx),%rdi
    291f:	48 03 3c 24          	add    (%rsp),%rdi
    2923:	48 01 ef             	add    %rbp,%rdi
    2926:	e8 35 fd ff ff       	callq  2660 <apply_EPC_pages>
    292b:	85 c0                	test   %eax,%eax
    292d:	0f 85 c4 fe ff ff    	jne    27f7 <do_add_thread+0x97>
    2933:	41 83 c7 01          	add    $0x1,%r15d
    2937:	66 41 83 ff 13       	cmp    $0x13,%r15w
    293c:	0f 85 0e ff ff ff    	jne    2850 <do_add_thread+0xf0>
    2942:	e9 63 ff ff ff       	jmpq   28aa <do_add_thread+0x14a>
    2947:	e8 d4 1a 00 00       	callq  4420 <__stack_chk_fail>
    294c:	0f 1f 40 00          	nopl   0x0(%rax)

0000000000002950 <_Z30_random_stack_noinline_wrapperI9_status_tJjPvEJRiRS1_EET_PFS4_DpT0_EDpOT1_.isra.0>:
    2950:	48 89 f8             	mov    %rdi,%rax
    2953:	89 f7                	mov    %esi,%edi
    2955:	48 89 d6             	mov    %rdx,%rsi
    2958:	ff e0                	jmpq   *%rax
    295a:	66 0f 1f 44 00 00    	nopw   0x0(%rax,%rax,1)

0000000000002960 <_ZL10trts_ecalljPv>:
    2960:	0f b6 05 b9 f6 21 00 	movzbl 0x21f6b9(%rip),%eax        # 222020 <_ZL16g_is_first_ecall>
    2967:	41 54                	push   %r12
    2969:	49 89 f4             	mov    %rsi,%r12
    296c:	55                   	push   %rbp
    296d:	53                   	push   %rbx
    296e:	89 fb                	mov    %edi,%ebx
    2970:	84 c0                	test   %al,%al
    2972:	0f 85 98 00 00 00    	jne    2a10 <_ZL10trts_ecalljPv+0xb0>
    2978:	8d 43 07             	lea    0x7(%rbx),%eax
    297b:	83 f8 01             	cmp    $0x1,%eax
    297e:	76 20                	jbe    29a0 <_ZL10trts_ecalljPv+0x40>
    2980:	48 8d 2d 99 f4 21 00 	lea    0x21f499(%rip),%rbp        # 221e20 <g_ecall_table>
    2987:	48 3b 5d 00          	cmp    0x0(%rbp),%rbx
    298b:	72 33                	jb     29c0 <_ZL10trts_ecalljPv+0x60>
    298d:	b8 01 10 00 00       	mov    $0x1001,%eax
    2992:	5b                   	pop    %rbx
    2993:	5d                   	pop    %rbp
    2994:	41 5c                	pop    %r12
    2996:	c3                   	retq   
    2997:	66 0f 1f 84 00 00 00 	nopw   0x0(%rax,%rax,1)
    299e:	00 00 
    29a0:	e8 09 ae 01 00       	callq  1d7ae <get_thread_data>
    29a5:	48 8b 48 10          	mov    0x10(%rax),%rcx
    29a9:	48 39 48 08          	cmp    %rcx,0x8(%rax)
    29ad:	0f 84 d5 00 00 00    	je     2a88 <_ZL10trts_ecalljPv+0x128>
    29b3:	5b                   	pop    %rbx
    29b4:	b8 01 00 00 00       	mov    $0x1,%eax
    29b9:	5d                   	pop    %rbp
    29ba:	41 5c                	pop    %r12
    29bc:	c3                   	retq   
    29bd:	0f 1f 00             	nopl   (%rax)
    29c0:	e8 e9 ad 01 00       	callq  1d7ae <get_thread_data>
    29c5:	0f ae e8             	lfence 
    29c8:	48 8b 50 08          	mov    0x8(%rax),%rdx
    29cc:	48 3b 50 10          	cmp    0x10(%rax),%rdx
    29d0:	0f 84 d2 00 00 00    	je     2aa8 <_ZL10trts_ecalljPv+0x148>
    29d6:	48 81 7a 20 44 49 43 	cmpq   $0x4f434944,0x20(%rdx)
    29dd:	4f 
    29de:	0f 85 28 01 00 00    	jne    2b0c <_ZL10trts_ecalljPv+0x1ac>
    29e4:	48 8d 05 35 b1 01 00 	lea    0x1b135(%rip),%rax        # 1db20 <g_dyn_entry_table>
    29eb:	48 8b 52 28          	mov    0x28(%rdx),%rdx
    29ef:	48 3b 10             	cmp    (%rax),%rdx
    29f2:	73 99                	jae    298d <_ZL10trts_ecalljPv+0x2d>
    29f4:	48 0f af 55 00       	imul   0x0(%rbp),%rdx
    29f9:	48 01 d8             	add    %rbx,%rax
    29fc:	80 7c 02 08 00       	cmpb   $0x0,0x8(%rdx,%rax,1)
    2a01:	0f 85 b8 00 00 00    	jne    2abf <_ZL10trts_ecalljPv+0x15f>
    2a07:	b8 07 10 00 00       	mov    $0x1007,%eax
    2a0c:	eb 84                	jmp    2992 <_ZL10trts_ecalljPv+0x32>
    2a0e:	66 90                	xchg   %ax,%ax
    2a10:	e8 99 ad 01 00       	callq  1d7ae <get_thread_data>
    2a15:	48 89 c2             	mov    %rax,%rdx
    2a18:	b8 07 10 00 00       	mov    $0x1007,%eax
    2a1d:	48 8b 4a 10          	mov    0x10(%rdx),%rcx
    2a21:	48 39 4a 08          	cmp    %rcx,0x8(%rdx)
    2a25:	0f 85 67 ff ff ff    	jne    2992 <_ZL10trts_ecalljPv+0x32>
    2a2b:	48 8d 3d 2e ff 21 00 	lea    0x21ff2e(%rip),%rdi        # 222960 <_ZL10g_ife_lock>
    2a32:	e8 09 50 00 00       	callq  7a40 <sgx_spin_lock>
    2a37:	0f b6 05 e2 f5 21 00 	movzbl 0x21f5e2(%rip),%eax        # 222020 <_ZL16g_is_first_ecall>
    2a3e:	84 c0                	test   %al,%al
    2a40:	74 2f                	je     2a71 <_ZL10trts_ecalljPv+0x111>
    2a42:	48 8d 05 fb f3 21 00 	lea    0x21f3fb(%rip),%rax        # 221e44 <EDMM_supported>
    2a49:	8b 00                	mov    (%rax),%eax
    2a4b:	85 c0                	test   %eax,%eax
    2a4d:	74 16                	je     2a65 <_ZL10trts_ecalljPv+0x105>
    2a4f:	48 8b 3d 8a f5 21 00 	mov    0x21f58a(%rip),%rdi        # 221fe0 <_DYNAMIC+0x170>
    2a56:	e8 35 16 00 00       	callq  4090 <change_protection>
    2a5b:	85 c0                	test   %eax,%eax
    2a5d:	89 c5                	mov    %eax,%ebp
    2a5f:	0f 85 94 00 00 00    	jne    2af9 <_ZL10trts_ecalljPv+0x199>
    2a65:	e8 26 18 00 00       	callq  4290 <init_global_object>
    2a6a:	c6 05 af f5 21 00 00 	movb   $0x0,0x21f5af(%rip)        # 222020 <_ZL16g_is_first_ecall>
    2a71:	48 8d 3d e8 fe 21 00 	lea    0x21fee8(%rip),%rdi        # 222960 <_ZL10g_ife_lock>
    2a78:	e8 23 50 00 00       	callq  7aa0 <sgx_spin_unlock>
    2a7d:	e9 f6 fe ff ff       	jmpq   2978 <_ZL10trts_ecalljPv+0x18>
    2a82:	66 0f 1f 44 00 00    	nopw   0x0(%rax,%rax,1)
    2a88:	83 fb fa             	cmp    $0xfffffffa,%ebx
    2a8b:	74 63                	je     2af0 <_ZL10trts_ecalljPv+0x190>
    2a8d:	48 8d 1d bc 08 00 00 	lea    0x8bc(%rip),%rbx        # 3350 <do_run_switchless_tworker>
    2a94:	0f ae e8             	lfence 
    2a97:	4c 89 e7             	mov    %r12,%rdi
    2a9a:	48 89 d8             	mov    %rbx,%rax
    2a9d:	5b                   	pop    %rbx
    2a9e:	5d                   	pop    %rbp
    2a9f:	41 5c                	pop    %r12
    2aa1:	ff e0                	jmpq   *%rax
    2aa3:	0f 1f 44 00 00       	nopl   0x0(%rax,%rax,1)
    2aa8:	48 89 da             	mov    %rbx,%rdx
    2aab:	b8 07 10 00 00       	mov    $0x1007,%eax
    2ab0:	48 c1 e2 04          	shl    $0x4,%rdx
    2ab4:	80 7c 15 10 00       	cmpb   $0x0,0x10(%rbp,%rdx,1)
    2ab9:	0f 85 d3 fe ff ff    	jne    2992 <_ZL10trts_ecalljPv+0x32>
    2abf:	48 c1 e3 04          	shl    $0x4,%rbx
    2ac3:	31 f6                	xor    %esi,%esi
    2ac5:	48 8b 5c 1d 08       	mov    0x8(%rbp,%rbx,1),%rbx
    2aca:	48 89 df             	mov    %rbx,%rdi
    2acd:	e8 de f0 ff ff       	callq  1bb0 <sgx_is_within_enclave>
    2ad2:	85 c0                	test   %eax,%eax
    2ad4:	0f 84 d9 fe ff ff    	je     29b3 <_ZL10trts_ecalljPv+0x53>
    2ada:	0f ae e8             	lfence 
    2add:	4c 89 e7             	mov    %r12,%rdi
    2ae0:	48 89 d8             	mov    %rbx,%rax
    2ae3:	5b                   	pop    %rbx
    2ae4:	5d                   	pop    %rbp
    2ae5:	41 5c                	pop    %r12
    2ae7:	ff e0                	jmpq   *%rax
    2ae9:	0f 1f 80 00 00 00 00 	nopl   0x0(%rax)
    2af0:	48 8d 1d 49 08 00 00 	lea    0x849(%rip),%rbx        # 3340 <do_init_switchless>
    2af7:	eb 9b                	jmp    2a94 <_ZL10trts_ecalljPv+0x134>
    2af9:	48 8d 3d 60 fe 21 00 	lea    0x21fe60(%rip),%rdi        # 222960 <_ZL10g_ife_lock>
    2b00:	e8 9b 4f 00 00       	callq  7aa0 <sgx_spin_unlock>
    2b05:	89 e8                	mov    %ebp,%eax
    2b07:	e9 86 fe ff ff       	jmpq   2992 <_ZL10trts_ecalljPv+0x32>
    2b0c:	e8 99 af 01 00       	callq  1daaa <abort>
    2b11:	66 2e 0f 1f 84 00 00 	nopw   %cs:0x0(%rax,%rax,1)
    2b18:	00 00 00 
    2b1b:	0f 1f 44 00 00       	nopl   0x0(%rax,%rax,1)

0000000000002b20 <do_init_thread>:
    2b20:	41 57                	push   %r15
    2b22:	41 56                	push   %r14
    2b24:	ba a0 00 00 00       	mov    $0xa0,%edx
    2b29:	41 55                	push   %r13
    2b2b:	41 54                	push   %r12
    2b2d:	41 89 f5             	mov    %esi,%r13d
    2b30:	55                   	push   %rbp
    2b31:	53                   	push   %rbx
    2b32:	48 89 fd             	mov    %rdi,%rbp
    2b35:	48 83 ec 28          	sub    $0x28,%rsp
    2b39:	64 48 8b 04 25 28 00 	mov    %fs:0x28,%rax
    2b40:	00 00 
    2b42:	48 89 44 24 18       	mov    %rax,0x18(%rsp)
    2b47:	31 c0                	xor    %eax,%eax
    2b49:	48 8d 05 b0 bf 01 00 	lea    0x1bfb0(%rip),%rax        # 1eb00 <g_global_data>
    2b50:	48 8b 58 20          	mov    0x20(%rax),%rbx
    2b54:	48 8d 70 20          	lea    0x20(%rax),%rsi
    2b58:	48 01 fb             	add    %rdi,%rbx
    2b5b:	48 89 df             	mov    %rbx,%rdi
    2b5e:	4c 8b 7b 28          	mov    0x28(%rbx),%r15
    2b62:	4c 8b 73 30          	mov    0x30(%rbx),%r14
    2b66:	4c 8b a3 98 00 00 00 	mov    0x98(%rbx),%r12
    2b6d:	e8 0e 4b 00 00       	callq  7680 <memcpy>
    2b72:	48 89 e8             	mov    %rbp,%rax
    2b75:	48 03 43 18          	add    0x18(%rbx),%rax
    2b79:	48 8b 4b 08          	mov    0x8(%rbx),%rcx
    2b7d:	48 8b 53 10          	mov    0x10(%rbx),%rdx
    2b81:	48 01 2b             	add    %rbp,(%rbx)
    2b84:	48 01 6b 20          	add    %rbp,0x20(%rbx)
    2b88:	4c 89 7b 28          	mov    %r15,0x28(%rbx)
    2b8c:	48 01 6b 58          	add    %rbp,0x58(%rbx)
    2b90:	4c 89 73 30          	mov    %r14,0x30(%rbx)
    2b94:	48 89 43 18          	mov    %rax,0x18(%rbx)
    2b98:	48 89 83 98 00 00 00 	mov    %rax,0x98(%rbx)
    2b9f:	48 8d 84 0d 50 fd ff 	lea    -0x2b0(%rbp,%rcx,1),%rax
    2ba6:	ff 
    2ba7:	48 01 6b 50          	add    %rbp,0x50(%rbx)
    2bab:	45 84 ed             	test   %r13b,%r13b
    2bae:	48 89 43 08          	mov    %rax,0x8(%rbx)
    2bb2:	48 8d 84 15 50 fd ff 	lea    -0x2b0(%rbp,%rdx,1),%rax
    2bb9:	ff 
    2bba:	48 89 43 10          	mov    %rax,0x10(%rbx)
    2bbe:	48 8d 05 73 f2 21 00 	lea    0x21f273(%rip),%rax        # 221e38 <__intel_security_cookie>
    2bc5:	48 8b 00             	mov    (%rax),%rax
    2bc8:	48 89 85 58 fd fe ff 	mov    %rax,-0x102a8(%rbp)
    2bcf:	74 08                	je     2bd9 <do_init_thread+0xb9>
    2bd1:	48 c7 43 30 01 00 00 	movq   $0x1,0x30(%rbx)
    2bd8:	00 
    2bd9:	4d 85 e4             	test   %r12,%r12
    2bdc:	75 72                	jne    2c50 <do_init_thread+0x130>
    2bde:	48 8d 05 5f f2 21 00 	lea    0x21f25f(%rip),%rax        # 221e44 <EDMM_supported>
    2be5:	8b 00                	mov    (%rax),%eax
    2be7:	85 c0                	test   %eax,%eax
    2be9:	75 75                	jne    2c60 <do_init_thread+0x140>
    2beb:	48 8b 3d ee f3 21 00 	mov    0x21f3ee(%rip),%rdi        # 221fe0 <_DYNAMIC+0x170>
    2bf2:	48 8d 54 24 10       	lea    0x10(%rsp),%rdx
    2bf7:	48 8d 74 24 08       	lea    0x8(%rsp),%rsi
    2bfc:	48 c7 44 24 08 00 00 	movq   $0x0,0x8(%rsp)
    2c03:	00 00 
    2c05:	48 c7 44 24 10 00 00 	movq   $0x0,0x10(%rsp)
    2c0c:	00 00 
    2c0e:	e8 0d 12 00 00       	callq  3e20 <elf_tls_info>
    2c13:	85 c0                	test   %eax,%eax
    2c15:	ba 01 00 00 00       	mov    $0x1,%edx
    2c1a:	75 0a                	jne    2c26 <do_init_thread+0x106>
    2c1c:	48 83 7c 24 08 00    	cmpq   $0x0,0x8(%rsp)
    2c22:	75 5c                	jne    2c80 <do_init_thread+0x160>
    2c24:	31 d2                	xor    %edx,%edx
    2c26:	48 8b 4c 24 18       	mov    0x18(%rsp),%rcx
    2c2b:	64 48 33 0c 25 28 00 	xor    %fs:0x28,%rcx
    2c32:	00 00 
    2c34:	89 d0                	mov    %edx,%eax
    2c36:	0f 85 a5 00 00 00    	jne    2ce1 <do_init_thread+0x1c1>
    2c3c:	48 83 c4 28          	add    $0x28,%rsp
    2c40:	5b                   	pop    %rbx
    2c41:	5d                   	pop    %rbp
    2c42:	41 5c                	pop    %r12
    2c44:	41 5d                	pop    %r13
    2c46:	41 5e                	pop    %r14
    2c48:	41 5f                	pop    %r15
    2c4a:	c3                   	retq   
    2c4b:	0f 1f 44 00 00       	nopl   0x0(%rax,%rax,1)
    2c50:	4c 89 a3 98 00 00 00 	mov    %r12,0x98(%rbx)
    2c57:	eb 92                	jmp    2beb <do_init_thread+0xcb>
    2c59:	0f 1f 80 00 00 00 00 	nopl   0x0(%rax)
    2c60:	45 84 ed             	test   %r13b,%r13b
    2c63:	74 6b                	je     2cd0 <do_init_thread+0x1b0>
    2c65:	e8 f6 f6 ff ff       	callq  2360 <get_dynamic_stack_max_page>
    2c6a:	89 c0                	mov    %eax,%eax
    2c6c:	48 c1 e0 0c          	shl    $0xc,%rax
    2c70:	48 01 83 98 00 00 00 	add    %rax,0x98(%rbx)
    2c77:	e9 6f ff ff ff       	jmpq   2beb <do_init_thread+0xcb>
    2c7c:	0f 1f 40 00          	nopl   0x0(%rax)
    2c80:	48 8b 03             	mov    (%rbx),%rax
    2c83:	48 8b 7b 50          	mov    0x50(%rbx),%rdi
    2c87:	31 f6                	xor    %esi,%esi
    2c89:	48 8d 90 ff 0f 00 00 	lea    0xfff(%rax),%rdx
    2c90:	48 29 fa             	sub    %rdi,%rdx
    2c93:	48 81 e7 00 f0 ff ff 	and    $0xfffffffffffff000,%rdi
    2c9a:	48 81 e2 00 f0 ff ff 	and    $0xfffffffffffff000,%rdx
    2ca1:	e8 0a 4a 00 00       	callq  76b0 <memset>
    2ca6:	48 8b 7b 50          	mov    0x50(%rbx),%rdi
    2caa:	48 8b 03             	mov    (%rbx),%rax
    2cad:	48 8b 54 24 10       	mov    0x10(%rsp),%rdx
    2cb2:	48 29 f8             	sub    %rdi,%rax
    2cb5:	48 39 c2             	cmp    %rax,%rdx
    2cb8:	0f 87 66 ff ff ff    	ja     2c24 <do_init_thread+0x104>
    2cbe:	48 8b 74 24 08       	mov    0x8(%rsp),%rsi
    2cc3:	e8 b8 49 00 00       	callq  7680 <memcpy>
    2cc8:	e9 57 ff ff ff       	jmpq   2c24 <do_init_thread+0x104>
    2ccd:	0f 1f 00             	nopl   (%rax)
    2cd0:	48 89 ef             	mov    %rbp,%rdi
    2cd3:	e8 28 f6 ff ff       	callq  2300 <is_dynamic_thread>
    2cd8:	85 c0                	test   %eax,%eax
    2cda:	75 89                	jne    2c65 <do_init_thread+0x145>
    2cdc:	e9 0a ff ff ff       	jmpq   2beb <do_init_thread+0xcb>
    2ce1:	e8 3a 17 00 00       	callq  4420 <__stack_chk_fail>
    2ce6:	66 2e 0f 1f 84 00 00 	nopw   %cs:0x0(%rax,%rax,1)
    2ced:	00 00 00 

0000000000002cf0 <do_ecall>:
    2cf0:	55                   	push   %rbp
    2cf1:	48 89 e5             	mov    %rsp,%rbp
    2cf4:	41 55                	push   %r13
    2cf6:	41 54                	push   %r12
    2cf8:	53                   	push   %rbx
    2cf9:	49 89 d5             	mov    %rdx,%r13
    2cfc:	89 fb                	mov    %edi,%ebx
    2cfe:	49 89 f4             	mov    %rsi,%r12
    2d01:	48 83 ec 18          	sub    $0x18,%rsp
    2d05:	64 48 8b 04 25 28 00 	mov    %fs:0x28,%rax
    2d0c:	00 00 
    2d0e:	48 89 45 d8          	mov    %rax,-0x28(%rbp)
    2d12:	31 c0                	xor    %eax,%eax
    2d14:	e8 62 aa 01 00       	callq  1d77b <get_enclave_state>
    2d19:	83 f8 02             	cmp    $0x2,%eax
    2d1c:	ba 01 00 00 00       	mov    $0x1,%edx
    2d21:	74 25                	je     2d48 <do_ecall+0x58>
    2d23:	48 8b 4d d8          	mov    -0x28(%rbp),%rcx
    2d27:	64 48 33 0c 25 28 00 	xor    %fs:0x28,%rcx
    2d2e:	00 00 
    2d30:	89 d0                	mov    %edx,%eax
    2d32:	0f 85 bb 00 00 00    	jne    2df3 <do_ecall+0x103>
    2d38:	48 8d 65 e8          	lea    -0x18(%rbp),%rsp
    2d3c:	5b                   	pop    %rbx
    2d3d:	41 5c                	pop    %r12
    2d3f:	41 5d                	pop    %r13
    2d41:	5d                   	pop    %rbp
    2d42:	c3                   	retq   
    2d43:	0f 1f 44 00 00       	nopl   0x0(%rax,%rax,1)
    2d48:	e8 61 aa 01 00       	callq  1d7ae <get_thread_data>
    2d4d:	48 85 c0             	test   %rax,%rax
    2d50:	74 3e                	je     2d90 <do_ecall+0xa0>
    2d52:	48 8b 78 08          	mov    0x8(%rax),%rdi
    2d56:	48 39 78 10          	cmp    %rdi,0x10(%rax)
    2d5a:	74 24                	je     2d80 <do_ecall+0x90>
    2d5c:	e8 4d aa 01 00       	callq  1d7ae <get_thread_data>
    2d61:	48 8b 48 08          	mov    0x8(%rax),%rcx
    2d65:	48 39 48 10          	cmp    %rcx,0x10(%rax)
    2d69:	74 3d                	je     2da8 <do_ecall+0xb8>
    2d6b:	4c 89 e6             	mov    %r12,%rsi
    2d6e:	89 df                	mov    %ebx,%edi
    2d70:	e8 eb fb ff ff       	callq  2960 <_ZL10trts_ecalljPv>
    2d75:	89 c2                	mov    %eax,%edx
    2d77:	eb aa                	jmp    2d23 <do_ecall+0x33>
    2d79:	0f 1f 80 00 00 00 00 	nopl   0x0(%rax)
    2d80:	48 8d 05 79 bd 01 00 	lea    0x1bd79(%rip),%rax        # 1eb00 <g_global_data>
    2d87:	48 8b 40 18          	mov    0x18(%rax),%rax
    2d8b:	48 85 c0             	test   %rax,%rax
    2d8e:	74 cc                	je     2d5c <do_ecall+0x6c>
    2d90:	31 f6                	xor    %esi,%esi
    2d92:	4c 89 ef             	mov    %r13,%rdi
    2d95:	e8 86 fd ff ff       	callq  2b20 <do_init_thread>
    2d9a:	85 c0                	test   %eax,%eax
    2d9c:	89 c2                	mov    %eax,%edx
    2d9e:	74 bc                	je     2d5c <do_ecall+0x6c>
    2da0:	eb 81                	jmp    2d23 <do_ecall+0x33>
    2da2:	66 0f 1f 44 00 00    	nopw   0x0(%rax,%rax,1)
    2da8:	49 89 e5             	mov    %rsp,%r13
    2dab:	0f c7 f6             	rdrand %esi
    2dae:	81 e6 ff 07 00 00    	and    $0x7ff,%esi
    2db4:	83 c6 01             	add    $0x1,%esi
    2db7:	48 8d 46 0f          	lea    0xf(%rsi),%rax
    2dbb:	25 f0 1f 00 00       	and    $0x1ff0,%eax
    2dc0:	48 29 c4             	sub    %rax,%rsp
    2dc3:	48 8d 05 7a f0 21 00 	lea    0x21f07a(%rip),%rax        # 221e44 <EDMM_supported>
    2dca:	8b 00                	mov    (%rax),%eax
    2dcc:	85 c0                	test   %eax,%eax
    2dce:	75 08                	jne    2dd8 <do_ecall+0xe8>
    2dd0:	48 89 e7             	mov    %rsp,%rdi
    2dd3:	e8 18 f1 ff ff       	callq  1ef0 <random_stack_notify_gdb>
    2dd8:	48 8d 3d 81 fb ff ff 	lea    -0x47f(%rip),%rdi        # 2960 <_ZL10trts_ecalljPv>
    2ddf:	4c 89 e2             	mov    %r12,%rdx
    2de2:	89 de                	mov    %ebx,%esi
    2de4:	e8 67 fb ff ff       	callq  2950 <_Z30_random_stack_noinline_wrapperI9_status_tJjPvEJRiRS1_EET_PFS4_DpT0_EDpOT1_.isra.0>
    2de9:	89 c2                	mov    %eax,%edx
    2deb:	4c 89 ec             	mov    %r13,%rsp
    2dee:	e9 30 ff ff ff       	jmpq   2d23 <do_ecall+0x33>
    2df3:	e8 28 16 00 00       	callq  4420 <__stack_chk_fail>
    2df8:	0f 1f 84 00 00 00 00 	nopl   0x0(%rax,%rax,1)
    2dff:	00 

0000000000002e00 <do_ecall_add_thread>:
    2e00:	55                   	push   %rbp
    2e01:	53                   	push   %rbx
    2e02:	48 89 fb             	mov    %rdi,%rbx
    2e05:	48 83 ec 18          	sub    $0x18,%rsp
    2e09:	64 48 8b 04 25 28 00 	mov    %fs:0x28,%rax
    2e10:	00 00 
    2e12:	48 89 44 24 08       	mov    %rax,0x8(%rsp)
    2e17:	31 c0                	xor    %eax,%eax
    2e19:	e8 90 a9 01 00       	callq  1d7ae <get_thread_data>
    2e1e:	48 85 c0             	test   %rax,%rax
    2e21:	0f 84 41 01 00 00    	je     2f68 <do_ecall_add_thread+0x168>
    2e27:	f6 40 30 01          	testb  $0x1,0x30(%rax)
    2e2b:	0f 84 37 01 00 00    	je     2f68 <do_ecall_add_thread+0x168>
    2e31:	48 85 db             	test   %rbx,%rbx
    2e34:	0f 84 2e 01 00 00    	je     2f68 <do_ecall_add_thread+0x168>
    2e3a:	be 08 00 00 00       	mov    $0x8,%esi
    2e3f:	48 89 df             	mov    %rbx,%rdi
    2e42:	e8 b9 ed ff ff       	callq  1c00 <sgx_is_outside_enclave>
    2e47:	85 c0                	test   %eax,%eax
    2e49:	0f 84 19 01 00 00    	je     2f68 <do_ecall_add_thread+0x168>
    2e4f:	48 8b 1b             	mov    (%rbx),%rbx
    2e52:	48 85 db             	test   %rbx,%rbx
    2e55:	0f 84 0d 01 00 00    	je     2f68 <do_ecall_add_thread+0x168>
    2e5b:	0f ae e8             	lfence 
    2e5e:	e8 4b a9 01 00       	callq  1d7ae <get_thread_data>
    2e63:	48 85 c0             	test   %rax,%rax
    2e66:	0f 84 fc 00 00 00    	je     2f68 <do_ecall_add_thread+0x168>
    2e6c:	f6 40 30 01          	testb  $0x1,0x30(%rax)
    2e70:	0f 84 f2 00 00 00    	je     2f68 <do_ecall_add_thread+0x168>
    2e76:	48 83 3d ea fa 21 00 	cmpq   $0x0,0x21faea(%rip)        # 222968 <_ZL12g_tcs_cookie>
    2e7d:	00 
    2e7e:	0f 84 b4 00 00 00    	je     2f38 <do_ecall_add_thread+0x138>
    2e84:	bf 10 00 00 00       	mov    $0x10,%edi
    2e89:	e8 b2 1d 00 00       	callq  4c40 <dlmalloc>
    2e8e:	48 85 c0             	test   %rax,%rax
    2e91:	0f 84 d1 00 00 00    	je     2f68 <do_ecall_add_thread+0x168>
    2e97:	48 89 da             	mov    %rbx,%rdx
    2e9a:	48 33 15 c7 fa 21 00 	xor    0x21fac7(%rip),%rdx        # 222968 <_ZL12g_tcs_cookie>
    2ea1:	48 89 df             	mov    %rbx,%rdi
    2ea4:	48 89 10             	mov    %rdx,(%rax)
    2ea7:	48 8b 15 c2 fa 21 00 	mov    0x21fac2(%rip),%rdx        # 222970 <_ZL10g_tcs_node>
    2eae:	48 89 05 bb fa 21 00 	mov    %rax,0x21fabb(%rip)        # 222970 <_ZL10g_tcs_node>
    2eb5:	48 89 50 08          	mov    %rdx,0x8(%rax)
    2eb9:	e8 a2 f8 ff ff       	callq  2760 <do_add_thread>
    2ebe:	89 c5                	mov    %eax,%ebp
    2ec0:	31 c0                	xor    %eax,%eax
    2ec2:	85 ed                	test   %ebp,%ebp
    2ec4:	0f 84 a3 00 00 00    	je     2f6d <do_ecall_add_thread+0x16d>
    2eca:	e8 df a8 01 00       	callq  1d7ae <get_thread_data>
    2ecf:	48 85 c0             	test   %rax,%rax
    2ed2:	74 5b                	je     2f2f <do_ecall_add_thread+0x12f>
    2ed4:	f6 40 30 01          	testb  $0x1,0x30(%rax)
    2ed8:	74 55                	je     2f2f <do_ecall_add_thread+0x12f>
    2eda:	48 8b 15 8f fa 21 00 	mov    0x21fa8f(%rip),%rdx        # 222970 <_ZL10g_tcs_node>
    2ee1:	48 85 d2             	test   %rdx,%rdx
    2ee4:	74 49                	je     2f2f <do_ecall_add_thread+0x12f>
    2ee6:	48 8b 0d 7b fa 21 00 	mov    0x21fa7b(%rip),%rcx        # 222968 <_ZL12g_tcs_cookie>
    2eed:	48 89 c8             	mov    %rcx,%rax
    2ef0:	48 33 02             	xor    (%rdx),%rax
    2ef3:	48 39 c3             	cmp    %rax,%rbx
    2ef6:	48 8b 42 08          	mov    0x8(%rdx),%rax
    2efa:	0f 84 b5 00 00 00    	je     2fb5 <do_ecall_add_thread+0x1b5>
    2f00:	48 85 c0             	test   %rax,%rax
    2f03:	74 2a                	je     2f2f <do_ecall_add_thread+0x12f>
    2f05:	48 89 ce             	mov    %rcx,%rsi
    2f08:	48 33 30             	xor    (%rax),%rsi
    2f0b:	48 39 f3             	cmp    %rsi,%rbx
    2f0e:	75 16                	jne    2f26 <do_ecall_add_thread+0x126>
    2f10:	eb 72                	jmp    2f84 <do_ecall_add_thread+0x184>
    2f12:	66 0f 1f 44 00 00    	nopw   0x0(%rax,%rax,1)
    2f18:	48 89 ca             	mov    %rcx,%rdx
    2f1b:	48 33 17             	xor    (%rdi),%rdx
    2f1e:	48 39 d3             	cmp    %rdx,%rbx
    2f21:	74 67                	je     2f8a <do_ecall_add_thread+0x18a>
    2f23:	48 89 f8             	mov    %rdi,%rax
    2f26:	48 8b 78 08          	mov    0x8(%rax),%rdi
    2f2a:	48 85 ff             	test   %rdi,%rdi
    2f2d:	75 e9                	jne    2f18 <do_ecall_add_thread+0x118>
    2f2f:	89 e8                	mov    %ebp,%eax
    2f31:	eb 3a                	jmp    2f6d <do_ecall_add_thread+0x16d>
    2f33:	0f 1f 44 00 00       	nopl   0x0(%rax,%rax,1)
    2f38:	48 c7 04 24 00 00 00 	movq   $0x0,(%rsp)
    2f3f:	00 
    2f40:	48 89 e5             	mov    %rsp,%rbp
    2f43:	eb 0c                	jmp    2f51 <do_ecall_add_thread+0x151>
    2f45:	0f 1f 00             	nopl   (%rax)
    2f48:	48 8b 04 24          	mov    (%rsp),%rax
    2f4c:	48 85 c0             	test   %rax,%rax
    2f4f:	75 4a                	jne    2f9b <do_ecall_add_thread+0x19b>
    2f51:	be 08 00 00 00       	mov    $0x8,%esi
    2f56:	48 89 ef             	mov    %rbp,%rdi
    2f59:	e8 42 ee ff ff       	callq  1da0 <sgx_read_rand>
    2f5e:	85 c0                	test   %eax,%eax
    2f60:	74 e6                	je     2f48 <do_ecall_add_thread+0x148>
    2f62:	66 0f 1f 44 00 00    	nopw   0x0(%rax,%rax,1)
    2f68:	b8 01 00 00 00       	mov    $0x1,%eax
    2f6d:	48 8b 4c 24 08       	mov    0x8(%rsp),%rcx
    2f72:	64 48 33 0c 25 28 00 	xor    %fs:0x28,%rcx
    2f79:	00 00 
    2f7b:	75 4b                	jne    2fc8 <do_ecall_add_thread+0x1c8>
    2f7d:	48 83 c4 18          	add    $0x18,%rsp
    2f81:	5b                   	pop    %rbx
    2f82:	5d                   	pop    %rbp
    2f83:	c3                   	retq   
    2f84:	48 89 c7             	mov    %rax,%rdi
    2f87:	48 89 d0             	mov    %rdx,%rax
    2f8a:	48 8b 57 08          	mov    0x8(%rdi),%rdx
    2f8e:	48 89 50 08          	mov    %rdx,0x8(%rax)
    2f92:	e8 89 36 00 00       	callq  6620 <dlfree>
    2f97:	89 e8                	mov    %ebp,%eax
    2f99:	eb d2                	jmp    2f6d <do_ecall_add_thread+0x16d>
    2f9b:	48 83 3d c5 f9 21 00 	cmpq   $0x0,0x21f9c5(%rip)        # 222968 <_ZL12g_tcs_cookie>
    2fa2:	00 
    2fa3:	0f 85 db fe ff ff    	jne    2e84 <do_ecall_add_thread+0x84>
    2fa9:	48 89 05 b8 f9 21 00 	mov    %rax,0x21f9b8(%rip)        # 222968 <_ZL12g_tcs_cookie>
    2fb0:	e9 cf fe ff ff       	jmpq   2e84 <do_ecall_add_thread+0x84>
    2fb5:	48 89 d7             	mov    %rdx,%rdi
    2fb8:	48 89 05 b1 f9 21 00 	mov    %rax,0x21f9b1(%rip)        # 222970 <_ZL10g_tcs_node>
    2fbf:	e8 5c 36 00 00       	callq  6620 <dlfree>
    2fc4:	89 e8                	mov    %ebp,%eax
    2fc6:	eb a5                	jmp    2f6d <do_ecall_add_thread+0x16d>
    2fc8:	e8 53 14 00 00       	callq  4420 <__stack_chk_fail>
    2fcd:	0f 1f 00             	nopl   (%rax)

0000000000002fd0 <do_uninit_enclave>:
    2fd0:	48 8d 05 6d ee 21 00 	lea    0x21ee6d(%rip),%rax        # 221e44 <EDMM_supported>
    2fd7:	41 54                	push   %r12
    2fd9:	55                   	push   %rbp
    2fda:	53                   	push   %rbx
    2fdb:	48 89 fd             	mov    %rdi,%rbp
    2fde:	8b 00                	mov    (%rax),%eax
    2fe0:	85 c0                	test   %eax,%eax
    2fe2:	0f 85 88 00 00 00    	jne    3070 <do_uninit_enclave+0xa0>
    2fe8:	48 8b 1d 81 f9 21 00 	mov    0x21f981(%rip),%rbx        # 222970 <_ZL10g_tcs_node>
    2fef:	48 c7 05 76 f9 21 00 	movq   $0x0,0x21f976(%rip)        # 222970 <_ZL10g_tcs_node>
    2ff6:	00 00 00 00 
    2ffa:	48 85 db             	test   %rbx,%rbx
    2ffd:	74 39                	je     3038 <do_uninit_enclave+0x68>
    2fff:	90                   	nop
    3000:	48 8b 33             	mov    (%rbx),%rsi
    3003:	48 33 35 5e f9 21 00 	xor    0x21f95e(%rip),%rsi        # 222968 <_ZL12g_tcs_cookie>
    300a:	48 39 f5             	cmp    %rsi,%rbp
    300d:	74 15                	je     3024 <do_uninit_enclave+0x54>
    300f:	48 8d 96 00 10 00 00 	lea    0x1000(%rsi),%rdx
    3016:	bf 10 04 00 00       	mov    $0x410,%edi
    301b:	e8 b0 f3 ff ff       	callq  23d0 <sgx_accept_forward>
    3020:	85 c0                	test   %eax,%eax
    3022:	75 60                	jne    3084 <do_uninit_enclave+0xb4>
    3024:	4c 8b 63 08          	mov    0x8(%rbx),%r12
    3028:	48 89 df             	mov    %rbx,%rdi
    302b:	e8 f0 35 00 00       	callq  6620 <dlfree>
    3030:	4d 85 e4             	test   %r12,%r12
    3033:	4c 89 e3             	mov    %r12,%rbx
    3036:	75 c8                	jne    3000 <do_uninit_enclave+0x30>
    3038:	48 8d 3d 21 f9 21 00 	lea    0x21f921(%rip),%rdi        # 222960 <_ZL10g_ife_lock>
    303f:	e8 fc 49 00 00       	callq  7a40 <sgx_spin_lock>
    3044:	0f b6 05 d5 ef 21 00 	movzbl 0x21efd5(%rip),%eax        # 222020 <_ZL16g_is_first_ecall>
    304b:	84 c0                	test   %al,%al
    304d:	74 41                	je     3090 <do_uninit_enclave+0xc0>
    304f:	48 8d 3d 0a f9 21 00 	lea    0x21f90a(%rip),%rdi        # 222960 <_ZL10g_ife_lock>
    3056:	e8 45 4a 00 00       	callq  7aa0 <sgx_spin_unlock>
    305b:	bf 03 00 00 00       	mov    $0x3,%edi
    3060:	e8 23 a7 01 00       	callq  1d788 <set_enclave_state>
    3065:	5b                   	pop    %rbx
    3066:	31 c0                	xor    %eax,%eax
    3068:	5d                   	pop    %rbp
    3069:	41 5c                	pop    %r12
    306b:	c3                   	retq   
    306c:	0f 1f 40 00          	nopl   0x0(%rax)
    3070:	e8 39 a7 01 00       	callq  1d7ae <get_thread_data>
    3075:	48 85 c0             	test   %rax,%rax
    3078:	74 0a                	je     3084 <do_uninit_enclave+0xb4>
    307a:	f6 40 30 01          	testb  $0x1,0x30(%rax)
    307e:	0f 85 64 ff ff ff    	jne    2fe8 <do_uninit_enclave+0x18>
    3084:	5b                   	pop    %rbx
    3085:	b8 01 00 00 00       	mov    $0x1,%eax
    308a:	5d                   	pop    %rbp
    308b:	41 5c                	pop    %r12
    308d:	c3                   	retq   
    308e:	66 90                	xchg   %ax,%ax
    3090:	e8 ab 12 00 00       	callq  4340 <uninit_global_object>
    3095:	eb b8                	jmp    304f <do_uninit_enclave+0x7f>
    3097:	66 0f 1f 84 00 00 00 	nopw   0x0(%rax,%rax,1)
    309e:	00 00 

00000000000030a0 <trts_mprotect>:
    30a0:	4c 8d 54 24 08       	lea    0x8(%rsp),%r10
    30a5:	48 83 e4 c0          	and    $0xffffffffffffffc0,%rsp
    30a9:	41 ff 72 f8          	pushq  -0x8(%r10)
    30ad:	55                   	push   %rbp
    30ae:	48 89 e5             	mov    %rsp,%rbp
    30b1:	41 56                	push   %r14
    30b3:	41 55                	push   %r13
    30b5:	41 54                	push   %r12
    30b7:	41 52                	push   %r10
    30b9:	53                   	push   %rbx
    30ba:	48 81 ec 88 00 00 00 	sub    $0x88,%rsp
    30c1:	64 48 8b 04 25 28 00 	mov    %fs:0x28,%rax
    30c8:	00 00 
    30ca:	48 89 45 c8          	mov    %rax,-0x38(%rbp)
    30ce:	31 c0                	xor    %eax,%eax
    30d0:	f7 c7 ff 0f 00 00    	test   $0xfff,%edi
    30d6:	b8 02 00 00 00       	mov    $0x2,%eax
    30db:	75 08                	jne    30e5 <trts_mprotect+0x45>
    30dd:	48 85 f6             	test   %rsi,%rsi
    30e0:	49 89 f4             	mov    %rsi,%r12
    30e3:	75 2b                	jne    3110 <trts_mprotect+0x70>
    30e5:	48 8b 4d c8          	mov    -0x38(%rbp),%rcx
    30e9:	64 48 33 0c 25 28 00 	xor    %fs:0x28,%rcx
    30f0:	00 00 
    30f2:	0f 85 b6 00 00 00    	jne    31ae <trts_mprotect+0x10e>
    30f8:	48 81 c4 88 00 00 00 	add    $0x88,%rsp
    30ff:	5b                   	pop    %rbx
    3100:	41 5a                	pop    %r10
    3102:	41 5c                	pop    %r12
    3104:	41 5d                	pop    %r13
    3106:	41 5e                	pop    %r14
    3108:	5d                   	pop    %rbp
    3109:	49 8d 62 f8          	lea    -0x8(%r10),%rsp
    310d:	c3                   	retq   
    310e:	66 90                	xchg   %ax,%ax
    3110:	f7 c6 ff 0f 00 00    	test   $0xfff,%esi
    3116:	75 cd                	jne    30e5 <trts_mprotect+0x45>
    3118:	48 8d 05 21 ed 21 00 	lea    0x21ed21(%rip),%rax        # 221e40 <g_sdk_version>
    311f:	48 89 fb             	mov    %rdi,%rbx
    3122:	49 89 d6             	mov    %rdx,%r14
    3125:	83 38 01             	cmpl   $0x1,(%rax)
    3128:	74 76                	je     31a0 <trts_mprotect+0x100>
    312a:	4c 8d ad 50 ff ff ff 	lea    -0xb0(%rbp),%r13
    3131:	4c 89 f0             	mov    %r14,%rax
    3134:	31 f6                	xor    %esi,%esi
    3136:	48 0d 20 02 00 00    	or     $0x220,%rax
    313c:	ba 38 00 00 00       	mov    $0x38,%edx
    3141:	49 01 dc             	add    %rbx,%r12
    3144:	49 8d 7d 08          	lea    0x8(%r13),%rdi
    3148:	48 89 85 50 ff ff ff 	mov    %rax,-0xb0(%rbp)
    314f:	41 83 e6 06          	and    $0x6,%r14d
    3153:	e8 58 45 00 00       	callq  76b0 <memset>
    3158:	4c 39 e3             	cmp    %r12,%rbx
    315b:	73 33                	jae    3190 <trts_mprotect+0xf0>
    315d:	0f 1f 00             	nopl   (%rax)
    3160:	48 89 de             	mov    %rbx,%rsi
    3163:	4c 89 ef             	mov    %r13,%rdi
    3166:	e8 0b a9 01 00       	callq  1da76 <do_emodpe>
    316b:	49 83 fe 06          	cmp    $0x6,%r14
    316f:	74 13                	je     3184 <trts_mprotect+0xe4>
    3171:	48 89 de             	mov    %rbx,%rsi
    3174:	4c 89 ef             	mov    %r13,%rdi
    3177:	e8 e0 a8 01 00       	callq  1da5c <do_eaccept>
    317c:	85 c0                	test   %eax,%eax
    317e:	0f 85 61 ff ff ff    	jne    30e5 <trts_mprotect+0x45>
    3184:	48 81 c3 00 10 00 00 	add    $0x1000,%rbx
    318b:	4c 39 e3             	cmp    %r12,%rbx
    318e:	72 d0                	jb     3160 <trts_mprotect+0xc0>
    3190:	31 c0                	xor    %eax,%eax
    3192:	e9 4e ff ff ff       	jmpq   30e5 <trts_mprotect+0x45>
    3197:	66 0f 1f 84 00 00 00 	nopw   0x0(%rax,%rax,1)
    319e:	00 00 
    31a0:	e8 1b 00 00 00       	callq  31c0 <change_permissions_ocall>
    31a5:	85 c0                	test   %eax,%eax
    31a7:	74 81                	je     312a <trts_mprotect+0x8a>
    31a9:	e9 37 ff ff ff       	jmpq   30e5 <trts_mprotect+0x45>
    31ae:	e8 6d 12 00 00       	callq  4420 <__stack_chk_fail>
    31b3:	66 2e 0f 1f 84 00 00 	nopw   %cs:0x0(%rax,%rax,1)
    31ba:	00 00 00 
    31bd:	0f 1f 00             	nopl   (%rax)

00000000000031c0 <change_permissions_ocall>:
    31c0:	41 54                	push   %r12
    31c2:	55                   	push   %rbp
    31c3:	49 89 fc             	mov    %rdi,%r12
    31c6:	53                   	push   %rbx
    31c7:	bf 18 00 00 00       	mov    $0x18,%edi
    31cc:	48 89 f5             	mov    %rsi,%rbp
    31cf:	48 89 d3             	mov    %rdx,%rbx
    31d2:	e8 79 ea ff ff       	callq  1c50 <sgx_ocalloc>
    31d7:	48 85 c0             	test   %rax,%rax
    31da:	74 2c                	je     3208 <change_permissions_ocall+0x48>
    31dc:	4c 89 20             	mov    %r12,(%rax)
    31df:	48 89 68 08          	mov    %rbp,0x8(%rax)
    31e3:	48 89 c6             	mov    %rax,%rsi
    31e6:	48 89 58 10          	mov    %rbx,0x10(%rax)
    31ea:	bf fc ff ff ff       	mov    $0xfffffffc,%edi
    31ef:	e8 2c 00 00 00       	callq  3220 <sgx_ocall>
    31f4:	89 c3                	mov    %eax,%ebx
    31f6:	e8 45 eb ff ff       	callq  1d40 <sgx_ocfree>
    31fb:	89 d8                	mov    %ebx,%eax
    31fd:	5b                   	pop    %rbx
    31fe:	5d                   	pop    %rbp
    31ff:	41 5c                	pop    %r12
    3201:	c3                   	retq   
    3202:	66 0f 1f 44 00 00    	nopw   0x0(%rax,%rax,1)
    3208:	e8 33 eb ff ff       	callq  1d40 <sgx_ocfree>
    320d:	5b                   	pop    %rbx
    320e:	b8 01 00 00 00       	mov    $0x1,%eax
    3213:	5d                   	pop    %rbp
    3214:	41 5c                	pop    %r12
    3216:	c3                   	retq   
    3217:	66 0f 1f 84 00 00 00 	nopw   0x0(%rax,%rax,1)
    321e:	00 00 

0000000000003220 <sgx_ocall>:
    3220:	8d 47 05             	lea    0x5(%rdi),%eax
    3223:	83 f8 03             	cmp    $0x3,%eax
    3226:	76 18                	jbe    3240 <sgx_ocall+0x20>
    3228:	85 ff                	test   %edi,%edi
    322a:	74 14                	je     3240 <sgx_ocall+0x20>
    322c:	48 8d 15 ed a8 01 00 	lea    0x1a8ed(%rip),%rdx        # 1db20 <g_dyn_entry_table>
    3233:	89 f8                	mov    %edi,%eax
    3235:	48 3b 02             	cmp    (%rdx),%rax
    3238:	72 06                	jb     3240 <sgx_ocall+0x20>
    323a:	b8 01 10 00 00       	mov    $0x1001,%eax
    323f:	c3                   	retq   
    3240:	e9 6a a7 01 00       	jmpq   1d9af <__morestack>
    3245:	66 2e 0f 1f 84 00 00 	nopw   %cs:0x0(%rax,%rax,1)
    324c:	00 00 00 
    324f:	90                   	nop

0000000000003250 <update_ocall_lastsp>:
    3250:	53                   	push   %rbx
    3251:	48 89 fb             	mov    %rdi,%rbx
    3254:	e8 55 a5 01 00       	callq  1d7ae <get_thread_data>
    3259:	48 8b 50 08          	mov    0x8(%rax),%rdx
    325d:	48 3b 50 10          	cmp    0x10(%rax),%rdx
    3261:	48 89 53 30          	mov    %rdx,0x30(%rbx)
    3265:	74 21                	je     3288 <update_ocall_lastsp+0x38>
    3267:	48 8b b2 90 00 00 00 	mov    0x90(%rdx),%rsi
    326e:	48 8d 4e 01          	lea    0x1(%rsi),%rcx
    3272:	48 89 8b 90 00 00 00 	mov    %rcx,0x90(%rbx)
    3279:	48 89 58 08          	mov    %rbx,0x8(%rax)
    327d:	48 89 d0             	mov    %rdx,%rax
    3280:	5b                   	pop    %rbx
    3281:	c3                   	retq   
    3282:	66 0f 1f 44 00 00    	nopw   0x0(%rax,%rax,1)
    3288:	48 c7 83 90 00 00 00 	movq   $0x1,0x90(%rbx)
    328f:	01 00 00 00 
    3293:	48 89 58 08          	mov    %rbx,0x8(%rax)
    3297:	48 89 d0             	mov    %rdx,%rax
    329a:	5b                   	pop    %rbx
    329b:	c3                   	retq   
    329c:	0f 1f 40 00          	nopl   0x0(%rax)

00000000000032a0 <do_oret>:
    32a0:	53                   	push   %rbx
    32a1:	48 89 fb             	mov    %rdi,%rbx
    32a4:	48 83 ec 10          	sub    $0x10,%rsp
    32a8:	64 48 8b 04 25 28 00 	mov    %fs:0x28,%rax
    32af:	00 00 
    32b1:	48 89 44 24 08       	mov    %rax,0x8(%rsp)
    32b6:	31 c0                	xor    %eax,%eax
    32b8:	e8 f1 a4 01 00       	callq  1d7ae <get_thread_data>
    32bd:	48 8b 78 08          	mov    0x8(%rax),%rdi
    32c1:	48 85 ff             	test   %rdi,%rdi
    32c4:	48 89 3c 24          	mov    %rdi,(%rsp)
    32c8:	74 26                	je     32f0 <do_oret+0x50>
    32ca:	48 39 e7             	cmp    %rsp,%rdi
    32cd:	76 21                	jbe    32f0 <do_oret+0x50>
    32cf:	48 8b 50 10          	mov    0x10(%rax),%rdx
    32d3:	48 8d 8a 10 ff ff ff 	lea    -0xf0(%rdx),%rcx
    32da:	48 39 cf             	cmp    %rcx,%rdi
    32dd:	77 11                	ja     32f0 <do_oret+0x50>
    32df:	48 81 7f 20 44 49 43 	cmpq   $0x4f434944,0x20(%rdi)
    32e6:	4f 
    32e7:	74 27                	je     3310 <do_oret+0x70>
    32e9:	0f 1f 80 00 00 00 00 	nopl   0x0(%rax)
    32f0:	48 8b 74 24 08       	mov    0x8(%rsp),%rsi
    32f5:	64 48 33 34 25 28 00 	xor    %fs:0x28,%rsi
    32fc:	00 00 
    32fe:	b8 01 00 00 00       	mov    $0x1,%eax
    3303:	75 27                	jne    332c <do_oret+0x8c>
    3305:	48 83 c4 10          	add    $0x10,%rsp
    3309:	5b                   	pop    %rbx
    330a:	c3                   	retq   
    330b:	0f 1f 44 00 00       	nopl   0x0(%rax,%rax,1)
    3310:	48 8b 4f 30          	mov    0x30(%rdi),%rcx
    3314:	48 39 ca             	cmp    %rcx,%rdx
    3317:	72 d7                	jb     32f0 <do_oret+0x50>
    3319:	48 39 cf             	cmp    %rcx,%rdi
    331c:	73 d2                	jae    32f0 <do_oret+0x50>
    331e:	48 89 48 08          	mov    %rcx,0x8(%rax)
    3322:	48 89 de             	mov    %rbx,%rsi
    3325:	e8 94 a6 01 00       	callq  1d9be <asm_oret>
    332a:	eb c4                	jmp    32f0 <do_oret+0x50>
    332c:	e8 ef 10 00 00       	callq  4420 <__stack_chk_fail>
    3331:	66 2e 0f 1f 84 00 00 	nopw   %cs:0x0(%rax,%rax,1)
    3338:	00 00 00 
    333b:	0f 1f 44 00 00       	nopl   0x0(%rax,%rax,1)

0000000000003340 <do_init_switchless>:
    3340:	b8 01 00 00 00       	mov    $0x1,%eax
    3345:	c3                   	retq   
    3346:	66 2e 0f 1f 84 00 00 	nopw   %cs:0x0(%rax,%rax,1)
    334d:	00 00 00 

0000000000003350 <do_run_switchless_tworker>:
    3350:	b8 01 00 00 00       	mov    $0x1,%eax
    3355:	c3                   	retq   
    3356:	66 2e 0f 1f 84 00 00 	nopw   %cs:0x0(%rax,%rax,1)
    335d:	00 00 00 

0000000000003360 <trim_range_ocall>:
    3360:	55                   	push   %rbp
    3361:	53                   	push   %rbx
    3362:	48 89 fd             	mov    %rdi,%rbp
    3365:	bf 10 00 00 00       	mov    $0x10,%edi
    336a:	48 89 f3             	mov    %rsi,%rbx
    336d:	48 83 ec 08          	sub    $0x8,%rsp
    3371:	e8 da e8 ff ff       	callq  1c50 <sgx_ocalloc>
    3376:	48 85 c0             	test   %rax,%rax
    3379:	74 25                	je     33a0 <trim_range_ocall+0x40>
    337b:	48 89 28             	mov    %rbp,(%rax)
    337e:	48 89 58 08          	mov    %rbx,0x8(%rax)
    3382:	48 89 c6             	mov    %rax,%rsi
    3385:	bf fe ff ff ff       	mov    $0xfffffffe,%edi
    338a:	e8 91 fe ff ff       	callq  3220 <sgx_ocall>
    338f:	89 c3                	mov    %eax,%ebx
    3391:	e8 aa e9 ff ff       	callq  1d40 <sgx_ocfree>
    3396:	48 83 c4 08          	add    $0x8,%rsp
    339a:	89 d8                	mov    %ebx,%eax
    339c:	5b                   	pop    %rbx
    339d:	5d                   	pop    %rbp
    339e:	c3                   	retq   
    339f:	90                   	nop
    33a0:	e8 9b e9 ff ff       	callq  1d40 <sgx_ocfree>
    33a5:	48 83 c4 08          	add    $0x8,%rsp
    33a9:	b8 01 00 00 00       	mov    $0x1,%eax
    33ae:	5b                   	pop    %rbx
    33af:	5d                   	pop    %rbp
    33b0:	c3                   	retq   
    33b1:	66 2e 0f 1f 84 00 00 	nopw   %cs:0x0(%rax,%rax,1)
    33b8:	00 00 00 
    33bb:	0f 1f 44 00 00       	nopl   0x0(%rax,%rax,1)

00000000000033c0 <trim_range_commit_ocall>:
    33c0:	53                   	push   %rbx
    33c1:	48 89 fb             	mov    %rdi,%rbx
    33c4:	bf 08 00 00 00       	mov    $0x8,%edi
    33c9:	e8 82 e8 ff ff       	callq  1c50 <sgx_ocalloc>
    33ce:	48 85 c0             	test   %rax,%rax
    33d1:	74 1d                	je     33f0 <trim_range_commit_ocall+0x30>
    33d3:	48 89 18             	mov    %rbx,(%rax)
    33d6:	48 89 c6             	mov    %rax,%rsi
    33d9:	bf fd ff ff ff       	mov    $0xfffffffd,%edi
    33de:	e8 3d fe ff ff       	callq  3220 <sgx_ocall>
    33e3:	89 c3                	mov    %eax,%ebx
    33e5:	e8 56 e9 ff ff       	callq  1d40 <sgx_ocfree>
    33ea:	89 d8                	mov    %ebx,%eax
    33ec:	5b                   	pop    %rbx
    33ed:	c3                   	retq   
    33ee:	66 90                	xchg   %ax,%ax
    33f0:	e8 4b e9 ff ff       	callq  1d40 <sgx_ocfree>
    33f5:	b8 01 00 00 00       	mov    $0x1,%eax
    33fa:	5b                   	pop    %rbx
    33fb:	c3                   	retq   
    33fc:	0f 1f 40 00          	nopl   0x0(%rax)

0000000000003400 <get_heap_base>:
    3400:	48 8d 05 f9 b6 01 00 	lea    0x1b6f9(%rip),%rax        # 1eb00 <g_global_data>
    3407:	48 8b 40 08          	mov    0x8(%rax),%rax
    340b:	48 03 05 ce eb 21 00 	add    0x21ebce(%rip),%rax        # 221fe0 <_DYNAMIC+0x170>
    3412:	c3                   	retq   
    3413:	66 2e 0f 1f 84 00 00 	nopw   %cs:0x0(%rax,%rax,1)
    341a:	00 00 00 
    341d:	0f 1f 00             	nopl   (%rax)

0000000000003420 <get_heap_size>:
    3420:	48 8d 15 1d ea 21 00 	lea    0x21ea1d(%rip),%rdx        # 221e44 <EDMM_supported>
    3427:	48 8d 35 d2 b6 01 00 	lea    0x1b6d2(%rip),%rsi        # 1eb00 <g_global_data>
    342e:	8b 12                	mov    (%rdx),%edx
    3430:	48 8b 46 10          	mov    0x10(%rsi),%rax
    3434:	85 d2                	test   %edx,%edx
    3436:	74 55                	je     348d <get_heap_size+0x6d>
    3438:	8b 96 08 01 00 00    	mov    0x108(%rsi),%edx
    343e:	85 d2                	test   %edx,%edx
    3440:	74 4b                	je     348d <get_heap_size+0x6d>
    3442:	31 c9                	xor    %ecx,%ecx
    3444:	eb 17                	jmp    345d <get_heap_size+0x3d>
    3446:	66 2e 0f 1f 84 00 00 	nopw   %cs:0x0(%rax,%rax,1)
    344d:	00 00 00 
    3450:	8b 96 08 01 00 00    	mov    0x108(%rsi),%edx
    3456:	83 c1 01             	add    $0x1,%ecx
    3459:	39 ca                	cmp    %ecx,%edx
    345b:	76 30                	jbe    348d <get_heap_size+0x6d>
    345d:	89 ca                	mov    %ecx,%edx
    345f:	48 c1 e2 05          	shl    $0x5,%rdx
    3463:	48 01 f2             	add    %rsi,%rdx
    3466:	0f b7 ba 10 01 00 00 	movzwl 0x110(%rdx),%edi
    346d:	66 83 ff 03          	cmp    $0x3,%di
    3471:	75 dd                	jne    3450 <get_heap_size+0x30>
    3473:	8b 92 14 01 00 00    	mov    0x114(%rdx),%edx
    3479:	83 c1 01             	add    $0x1,%ecx
    347c:	48 c1 e2 0c          	shl    $0xc,%rdx
    3480:	48 01 d0             	add    %rdx,%rax
    3483:	8b 96 08 01 00 00    	mov    0x108(%rsi),%edx
    3489:	39 ca                	cmp    %ecx,%edx
    348b:	77 d0                	ja     345d <get_heap_size+0x3d>
    348d:	f3 c3                	repz retq 
    348f:	90                   	nop

0000000000003490 <get_heap_min_size>:
    3490:	48 8d 0d 69 b6 01 00 	lea    0x1b669(%rip),%rcx        # 1eb00 <g_global_data>
    3497:	8b 81 08 01 00 00    	mov    0x108(%rcx),%eax
    349d:	85 c0                	test   %eax,%eax
    349f:	74 3d                	je     34de <get_heap_min_size+0x4e>
    34a1:	0f b7 81 10 01 00 00 	movzwl 0x110(%rcx),%eax
    34a8:	66 83 f8 01          	cmp    $0x1,%ax
    34ac:	74 33                	je     34e1 <get_heap_min_size+0x51>
    34ae:	31 c0                	xor    %eax,%eax
    34b0:	eb 1f                	jmp    34d1 <get_heap_min_size+0x41>
    34b2:	66 0f 1f 44 00 00    	nopw   0x0(%rax,%rax,1)
    34b8:	89 c6                	mov    %eax,%esi
    34ba:	48 89 f2             	mov    %rsi,%rdx
    34bd:	48 c1 e2 05          	shl    $0x5,%rdx
    34c1:	48 01 ca             	add    %rcx,%rdx
    34c4:	0f b7 92 10 01 00 00 	movzwl 0x110(%rdx),%edx
    34cb:	66 83 fa 01          	cmp    $0x1,%dx
    34cf:	74 12                	je     34e3 <get_heap_min_size+0x53>
    34d1:	8b 91 08 01 00 00    	mov    0x108(%rcx),%edx
    34d7:	83 c0 01             	add    $0x1,%eax
    34da:	39 c2                	cmp    %eax,%edx
    34dc:	77 da                	ja     34b8 <get_heap_min_size+0x28>
    34de:	31 c0                	xor    %eax,%eax
    34e0:	c3                   	retq   
    34e1:	31 f6                	xor    %esi,%esi
    34e3:	48 c1 e6 05          	shl    $0x5,%rsi
    34e7:	48 01 f1             	add    %rsi,%rcx
    34ea:	8b 81 14 01 00 00    	mov    0x114(%rcx),%eax
    34f0:	48 c1 e0 0c          	shl    $0xc,%rax
    34f4:	c3                   	retq   
    34f5:	66 2e 0f 1f 84 00 00 	nopw   %cs:0x0(%rax,%rax,1)
    34fc:	00 00 00 
    34ff:	90                   	nop

0000000000003500 <get_errno_addr>:
    3500:	48 83 ec 08          	sub    $0x8,%rsp
    3504:	e8 a5 a2 01 00       	callq  1d7ae <get_thread_data>
    3509:	48 83 c4 08          	add    $0x8,%rsp
    350d:	48 83 c0 40          	add    $0x40,%rax
    3511:	c3                   	retq   
    3512:	66 2e 0f 1f 84 00 00 	nopw   %cs:0x0(%rax,%rax,1)
    3519:	00 00 00 
    351c:	0f 1f 40 00          	nopl   0x0(%rax)

0000000000003520 <feature_supported>:
    3520:	31 c0                	xor    %eax,%eax
    3522:	48 85 ff             	test   %rdi,%rdi
    3525:	75 15                	jne    353c <feature_supported+0x1c>
    3527:	eb 3a                	jmp    3563 <feature_supported+0x43>
    3529:	0f 1f 80 00 00 00 00 	nopl   0x0(%rax)
    3530:	41 89 c0             	mov    %eax,%r8d
    3533:	89 d0                	mov    %edx,%eax
    3535:	4a 83 3c c7 00       	cmpq   $0x0,(%rdi,%r8,8)
    353a:	78 24                	js     3560 <feature_supported+0x40>
    353c:	8d 50 01             	lea    0x1(%rax),%edx
    353f:	41 89 d0             	mov    %edx,%r8d
    3542:	41 c1 e0 06          	shl    $0x6,%r8d
    3546:	41 39 f0             	cmp    %esi,%r8d
    3549:	76 e5                	jbe    3530 <feature_supported+0x10>
    354b:	89 c2                	mov    %eax,%edx
    354d:	89 f1                	mov    %esi,%ecx
    354f:	c1 e0 06             	shl    $0x6,%eax
    3552:	29 c1                	sub    %eax,%ecx
    3554:	48 8b 04 d7          	mov    (%rdi,%rdx,8),%rax
    3558:	48 d3 e8             	shr    %cl,%rax
    355b:	83 e0 01             	and    $0x1,%eax
    355e:	c3                   	retq   
    355f:	90                   	nop
    3560:	31 c0                	xor    %eax,%eax
    3562:	c3                   	retq   
    3563:	f3 c3                	repz retq 
    3565:	66 2e 0f 1f 84 00 00 	nopw   %cs:0x0(%rax,%rax,1)
    356c:	00 00 00 
    356f:	90                   	nop

0000000000003570 <is_stack_addr>:
    3570:	55                   	push   %rbp
    3571:	53                   	push   %rbx
    3572:	48 89 fd             	mov    %rdi,%rbp
    3575:	48 89 f3             	mov    %rsi,%rbx
    3578:	48 83 ec 08          	sub    $0x8,%rsp
    357c:	e8 2d a2 01 00       	callq  1d7ae <get_thread_data>
    3581:	48 8d 74 1d 00       	lea    0x0(%rbp,%rbx,1),%rsi
    3586:	48 39 70 10          	cmp    %rsi,0x10(%rax)
    358a:	48 89 c7             	mov    %rax,%rdi
    358d:	0f 93 c0             	setae  %al
    3590:	48 39 f5             	cmp    %rsi,%rbp
    3593:	0f 96 c2             	setbe  %dl
    3596:	21 d0                	and    %edx,%eax
    3598:	48 39 6f 18          	cmp    %rbp,0x18(%rdi)
    359c:	0f 96 c2             	setbe  %dl
    359f:	48 83 c4 08          	add    $0x8,%rsp
    35a3:	21 d0                	and    %edx,%eax
    35a5:	5b                   	pop    %rbx
    35a6:	5d                   	pop    %rbp
    35a7:	c3                   	retq   
    35a8:	0f 1f 84 00 00 00 00 	nopl   0x0(%rax,%rax,1)
    35af:	00 

00000000000035b0 <is_valid_sp>:
    35b0:	40 f6 c7 07          	test   $0x7,%dil
    35b4:	74 0a                	je     35c0 <is_valid_sp+0x10>
    35b6:	31 c0                	xor    %eax,%eax
    35b8:	c3                   	retq   
    35b9:	0f 1f 80 00 00 00 00 	nopl   0x0(%rax)
    35c0:	53                   	push   %rbx
    35c1:	48 89 fb             	mov    %rdi,%rbx
    35c4:	e8 e5 a1 01 00       	callq  1d7ae <get_thread_data>
    35c9:	48 3b 58 10          	cmp    0x10(%rax),%rbx
    35cd:	0f 96 c2             	setbe  %dl
    35d0:	48 3b 58 18          	cmp    0x18(%rax),%rbx
    35d4:	5b                   	pop    %rbx
    35d5:	0f 93 c0             	setae  %al
    35d8:	21 d0                	and    %edx,%eax
    35da:	c3                   	retq   
    35db:	0f 1f 44 00 00       	nopl   0x0(%rax,%rax,1)

00000000000035e0 <internal_handle_exception>:
    35e0:	41 56                	push   %r14
    35e2:	41 55                	push   %r13
    35e4:	41 54                	push   %r12
    35e6:	55                   	push   %rbp
    35e7:	48 89 fd             	mov    %rdi,%rbp
    35ea:	53                   	push   %rbx
    35eb:	e8 be a1 01 00       	callq  1d7ae <get_thread_data>
    35f0:	49 89 c4             	mov    %rax,%r12
    35f3:	48 8b 40 60          	mov    0x60(%rax),%rax
    35f7:	48 85 c0             	test   %rax,%rax
    35fa:	0f 88 d8 00 00 00    	js     36d8 <internal_handle_exception+0xf8>
    3600:	48 83 c0 01          	add    $0x1,%rax
    3604:	48 8d 3d 75 f3 21 00 	lea    0x21f375(%rip),%rdi        # 222980 <_ZL14g_handler_lock>
    360b:	49 89 44 24 60       	mov    %rax,0x60(%r12)
    3610:	e8 2b 44 00 00       	callq  7a40 <sgx_spin_lock>
    3615:	48 8b 05 6c f3 21 00 	mov    0x21f36c(%rip),%rax        # 222988 <_ZL12g_first_node>
    361c:	48 85 c0             	test   %rax,%rax
    361f:	0f 84 f1 00 00 00    	je     3716 <internal_handle_exception+0x136>
    3625:	31 db                	xor    %ebx,%ebx
    3627:	66 0f 1f 84 00 00 00 	nopw   0x0(%rax,%rax,1)
    362e:	00 00 
    3630:	48 8b 40 08          	mov    0x8(%rax),%rax
    3634:	48 83 c3 08          	add    $0x8,%rbx
    3638:	48 85 c0             	test   %rax,%rax
    363b:	75 f3                	jne    3630 <internal_handle_exception+0x50>
    363d:	48 85 db             	test   %rbx,%rbx
    3640:	0f 84 d0 00 00 00    	je     3716 <internal_handle_exception+0x136>
    3646:	48 89 df             	mov    %rbx,%rdi
    3649:	e8 f2 15 00 00       	callq  4c40 <dlmalloc>
    364e:	48 85 c0             	test   %rax,%rax
    3651:	49 89 c5             	mov    %rax,%r13
    3654:	0f 84 e0 00 00 00    	je     373a <internal_handle_exception+0x15a>
    365a:	48 8b 05 27 f3 21 00 	mov    0x21f327(%rip),%rax        # 222988 <_ZL12g_first_node>
    3661:	4c 89 ea             	mov    %r13,%rdx
    3664:	48 85 c0             	test   %rax,%rax
    3667:	74 1b                	je     3684 <internal_handle_exception+0xa4>
    3669:	0f 1f 80 00 00 00 00 	nopl   0x0(%rax)
    3670:	48 8b 08             	mov    (%rax),%rcx
    3673:	48 8b 40 08          	mov    0x8(%rax),%rax
    3677:	48 83 c2 08          	add    $0x8,%rdx
    367b:	48 89 4a f8          	mov    %rcx,-0x8(%rdx)
    367f:	48 85 c0             	test   %rax,%rax
    3682:	75 ec                	jne    3670 <internal_handle_exception+0x90>
    3684:	48 8d 3d f5 f2 21 00 	lea    0x21f2f5(%rip),%rdi        # 222980 <_ZL14g_handler_lock>
    368b:	e8 10 44 00 00       	callq  7aa0 <sgx_spin_unlock>
    3690:	48 85 db             	test   %rbx,%rbx
    3693:	74 51                	je     36e6 <internal_handle_exception+0x106>
    3695:	4d 89 ee             	mov    %r13,%r14
    3698:	eb 10                	jmp    36aa <internal_handle_exception+0xca>
    369a:	66 0f 1f 44 00 00    	nopw   0x0(%rax,%rax,1)
    36a0:	49 83 c6 08          	add    $0x8,%r14
    36a4:	48 83 eb 08          	sub    $0x8,%rbx
    36a8:	74 3c                	je     36e6 <internal_handle_exception+0x106>
    36aa:	49 8b 06             	mov    (%r14),%rax
    36ad:	48 33 05 c4 f2 21 00 	xor    0x21f2c4(%rip),%rax        # 222978 <_ZL12g_veh_cookie>
    36b4:	48 89 ef             	mov    %rbp,%rdi
    36b7:	ff d0                	callq  *%rax
    36b9:	83 f8 ff             	cmp    $0xffffffff,%eax
    36bc:	75 e2                	jne    36a0 <internal_handle_exception+0xc0>
    36be:	4c 89 ef             	mov    %r13,%rdi
    36c1:	e8 5a 2f 00 00       	callq  6620 <dlfree>
    36c6:	48 8b 7d 20          	mov    0x20(%rbp),%rdi
    36ca:	e8 e1 fe ff ff       	callq  35b0 <is_valid_sp>
    36cf:	84 c0                	test   %al,%al
    36d1:	75 3b                	jne    370e <internal_handle_exception+0x12e>
    36d3:	0f 1f 44 00 00       	nopl   0x0(%rax,%rax,1)
    36d8:	49 c7 44 24 60 ff ff 	movq   $0xffffffffffffffff,0x60(%r12)
    36df:	ff ff 
    36e1:	e8 c4 a3 01 00       	callq  1daaa <abort>
    36e6:	4c 89 ef             	mov    %r13,%rdi
    36e9:	e8 32 2f 00 00       	callq  6620 <dlfree>
    36ee:	48 8b 7d 20          	mov    0x20(%rbp),%rdi
    36f2:	e8 b9 fe ff ff       	callq  35b0 <is_valid_sp>
    36f7:	84 c0                	test   %al,%al
    36f9:	74 dd                	je     36d8 <internal_handle_exception+0xf8>
    36fb:	49 c7 44 24 60 ff ff 	movq   $0xffffffffffffffff,0x60(%r12)
    3702:	ff ff 
    3704:	48 89 ef             	mov    %rbp,%rdi
    3707:	e8 ad a3 01 00       	callq  1dab9 <continue_execution>
    370c:	eb ca                	jmp    36d8 <internal_handle_exception+0xf8>
    370e:	49 83 6c 24 60 01    	subq   $0x1,0x60(%r12)
    3714:	eb ee                	jmp    3704 <internal_handle_exception+0x124>
    3716:	48 8d 3d 63 f2 21 00 	lea    0x21f263(%rip),%rdi        # 222980 <_ZL14g_handler_lock>
    371d:	31 db                	xor    %ebx,%ebx
    371f:	e8 7c 43 00 00       	callq  7aa0 <sgx_spin_unlock>
    3724:	49 c7 44 24 60 ff ff 	movq   $0xffffffffffffffff,0x60(%r12)
    372b:	ff ff 
    372d:	48 89 ef             	mov    %rbp,%rdi
    3730:	e8 84 a3 01 00       	callq  1dab9 <continue_execution>
    3735:	e9 0c ff ff ff       	jmpq   3646 <internal_handle_exception+0x66>
    373a:	48 8d 3d 3f f2 21 00 	lea    0x21f23f(%rip),%rdi        # 222980 <_ZL14g_handler_lock>
    3741:	e8 5a 43 00 00       	callq  7aa0 <sgx_spin_unlock>
    3746:	eb 90                	jmp    36d8 <internal_handle_exception+0xf8>
    3748:	0f 1f 84 00 00 00 00 	nopl   0x0(%rax,%rax,1)
    374f:	00 

0000000000003750 <trts_handle_exception>:
    3750:	41 55                	push   %r13
    3752:	41 54                	push   %r12
    3754:	55                   	push   %rbp
    3755:	53                   	push   %rbx
    3756:	48 89 fd             	mov    %rdi,%rbp
    3759:	48 83 ec 08          	sub    $0x8,%rsp
    375d:	e8 4c a0 01 00       	callq  1d7ae <get_thread_data>
    3762:	48 85 c0             	test   %rax,%rax
    3765:	74 05                	je     376c <trts_handle_exception+0x1c>
    3767:	48 85 ed             	test   %rbp,%rbp
    376a:	75 24                	jne    3790 <trts_handle_exception+0x40>
    376c:	48 8d 05 d1 f1 21 00 	lea    0x21f1d1(%rip),%rax        # 222944 <g_enclave_state>
    3773:	c7 00 03 00 00 00    	movl   $0x3,(%rax)
    3779:	b8 06 10 00 00       	mov    $0x1006,%eax
    377e:	48 83 c4 08          	add    $0x8,%rsp
    3782:	5b                   	pop    %rbx
    3783:	5d                   	pop    %rbp
    3784:	41 5c                	pop    %r12
    3786:	41 5d                	pop    %r13
    3788:	c3                   	retq   
    3789:	0f 1f 80 00 00 00 00 	nopl   0x0(%rax)
    3790:	48 89 ef             	mov    %rbp,%rdi
    3793:	48 89 c3             	mov    %rax,%rbx
    3796:	e8 35 e7 ff ff       	callq  1ed0 <check_static_stack_canary>
    379b:	85 c0                	test   %eax,%eax
    379d:	75 cd                	jne    376c <trts_handle_exception+0x1c>
    379f:	e8 d7 9f 01 00       	callq  1d77b <get_enclave_state>
    37a4:	83 f8 02             	cmp    $0x2,%eax
    37a7:	75 c3                	jne    376c <trts_handle_exception+0x1c>
    37a9:	48 83 7b 60 ff       	cmpq   $0xffffffffffffffff,0x60(%rbx)
    37ae:	74 bc                	je     376c <trts_handle_exception+0x1c>
    37b0:	48 8b 43 10          	mov    0x10(%rbx),%rax
    37b4:	48 05 b0 02 01 00    	add    $0x102b0,%rax
    37ba:	48 39 c5             	cmp    %rax,%rbp
    37bd:	75 ad                	jne    376c <trts_handle_exception+0x1c>
    37bf:	4c 8b 63 20          	mov    0x20(%rbx),%r12
    37c3:	4c 89 e0             	mov    %r12,%rax
    37c6:	48 25 00 f0 ff ff    	and    $0xfffffffffffff000,%rax
    37cc:	48 2d 00 10 00 00    	sub    $0x1000,%rax
    37d2:	48 39 c5             	cmp    %rax,%rbp
    37d5:	75 95                	jne    376c <trts_handle_exception+0x1c>
    37d7:	49 8b 6c 24 20       	mov    0x20(%r12),%rbp
    37dc:	31 f6                	xor    %esi,%esi
    37de:	48 89 ef             	mov    %rbp,%rdi
    37e1:	e8 8a fd ff ff       	callq  3570 <is_stack_addr>
    37e6:	84 c0                	test   %al,%al
    37e8:	75 14                	jne    37fe <trts_handle_exception+0xae>
    37ea:	48 8d 05 53 f1 21 00 	lea    0x21f153(%rip),%rax        # 222944 <g_enclave_state>
    37f1:	c7 00 03 00 00 00    	movl   $0x3,(%rax)
    37f7:	b8 09 10 00 00       	mov    $0x1009,%eax
    37fc:	eb 80                	jmp    377e <trts_handle_exception+0x2e>
    37fe:	48 81 ed 18 01 00 00 	sub    $0x118,%rbp
    3805:	be 18 01 00 00       	mov    $0x118,%esi
    380a:	48 83 e5 f0          	and    $0xfffffffffffffff0,%rbp
    380e:	48 89 ef             	mov    %rbp,%rdi
    3811:	e8 5a fd ff ff       	callq  3570 <is_stack_addr>
    3816:	84 c0                	test   %al,%al
    3818:	74 d0                	je     37ea <trts_handle_exception+0x9a>
    381a:	4c 8d 6d f8          	lea    -0x8(%rbp),%r13
    381e:	be 08 00 00 00       	mov    $0x8,%esi
    3823:	4c 89 ef             	mov    %r13,%rdi
    3826:	e8 45 fd ff ff       	callq  3570 <is_stack_addr>
    382b:	84 c0                	test   %al,%al
    382d:	74 bb                	je     37ea <trts_handle_exception+0x9a>
    382f:	48 8b 83 98 00 00 00 	mov    0x98(%rbx),%rax
    3836:	49 39 c5             	cmp    %rax,%r13
    3839:	73 50                	jae    388b <trts_handle_exception+0x13b>
    383b:	48 8d a8 ff 0f 00 00 	lea    0xfff(%rax),%rbp
    3842:	4c 29 ed             	sub    %r13,%rbp
    3845:	48 81 e5 00 f0 ff ff 	and    $0xfffffffffffff000,%rbp
    384c:	48 39 e8             	cmp    %rbp,%rax
    384f:	76 99                	jbe    37ea <trts_handle_exception+0x9a>
    3851:	48 29 e8             	sub    %rbp,%rax
    3854:	48 3b 43 18          	cmp    0x18(%rbx),%rax
    3858:	48 89 c7             	mov    %rax,%rdi
    385b:	72 8d                	jb     37ea <trts_handle_exception+0x9a>
    385d:	48 89 ee             	mov    %rbp,%rsi
    3860:	48 c1 ee 0c          	shr    $0xc,%rsi
    3864:	48 85 c0             	test   %rax,%rax
    3867:	74 81                	je     37ea <trts_handle_exception+0x9a>
    3869:	48 85 f6             	test   %rsi,%rsi
    386c:	0f 84 78 ff ff ff    	je     37ea <trts_handle_exception+0x9a>
    3872:	e8 f9 ec ff ff       	callq  2570 <apply_pages_within_exception>
    3877:	85 c0                	test   %eax,%eax
    3879:	0f 85 6b ff ff ff    	jne    37ea <trts_handle_exception+0x9a>
    387f:	48 29 ab 98 00 00 00 	sub    %rbp,0x98(%rbx)
    3886:	e9 f3 fe ff ff       	jmpq   377e <trts_handle_exception+0x2e>
    388b:	49 8b 84 24 88 00 00 	mov    0x88(%r12),%rax
    3892:	00 
    3893:	48 3b 05 56 e7 21 00 	cmp    0x21e756(%rip),%rax        # 221ff0 <_DYNAMIC+0x180>
    389a:	0f 84 06 01 00 00    	je     39a6 <trts_handle_exception+0x256>
    38a0:	41 80 bc 24 a3 00 00 	cmpb   $0x0,0xa3(%r12)
    38a7:	00 00 
    38a9:	0f 89 bd fe ff ff    	jns    376c <trts_handle_exception+0x1c>
    38af:	41 0f b6 94 24 a0 00 	movzbl 0xa0(%r12),%edx
    38b6:	00 00 
    38b8:	48 8d 0d 21 fd ff ff 	lea    -0x2df(%rip),%rcx        # 35e0 <internal_handle_exception>
    38bf:	89 95 90 00 00 00    	mov    %edx,0x90(%rbp)
    38c5:	41 0f b6 94 24 a1 00 	movzbl 0xa1(%r12),%edx
    38cc:	00 00 
    38ce:	83 e2 07             	and    $0x7,%edx
    38d1:	89 95 94 00 00 00    	mov    %edx,0x94(%rbp)
    38d7:	49 8b 14 24          	mov    (%r12),%rdx
    38db:	48 89 55 00          	mov    %rdx,0x0(%rbp)
    38df:	49 8b 54 24 08       	mov    0x8(%r12),%rdx
    38e4:	48 89 55 08          	mov    %rdx,0x8(%rbp)
    38e8:	49 8b 54 24 10       	mov    0x10(%r12),%rdx
    38ed:	48 89 55 10          	mov    %rdx,0x10(%rbp)
    38f1:	49 8b 54 24 18       	mov    0x18(%r12),%rdx
    38f6:	48 89 55 18          	mov    %rdx,0x18(%rbp)
    38fa:	49 8b 54 24 20       	mov    0x20(%r12),%rdx
    38ff:	48 89 55 20          	mov    %rdx,0x20(%rbp)
    3903:	49 8b 54 24 28       	mov    0x28(%r12),%rdx
    3908:	48 89 55 28          	mov    %rdx,0x28(%rbp)
    390c:	49 8b 54 24 30       	mov    0x30(%r12),%rdx
    3911:	48 89 55 30          	mov    %rdx,0x30(%rbp)
    3915:	49 8b 54 24 38       	mov    0x38(%r12),%rdx
    391a:	48 89 55 38          	mov    %rdx,0x38(%rbp)
    391e:	49 8b 94 24 80 00 00 	mov    0x80(%r12),%rdx
    3925:	00 
    3926:	48 89 85 88 00 00 00 	mov    %rax,0x88(%rbp)
    392d:	48 89 95 80 00 00 00 	mov    %rdx,0x80(%rbp)
    3934:	49 8b 54 24 40       	mov    0x40(%r12),%rdx
    3939:	48 89 55 40          	mov    %rdx,0x40(%rbp)
    393d:	49 8b 54 24 48       	mov    0x48(%r12),%rdx
    3942:	48 89 55 48          	mov    %rdx,0x48(%rbp)
    3946:	49 8b 54 24 50       	mov    0x50(%r12),%rdx
    394b:	48 89 55 50          	mov    %rdx,0x50(%rbp)
    394f:	49 8b 54 24 58       	mov    0x58(%r12),%rdx
    3954:	48 89 55 58          	mov    %rdx,0x58(%rbp)
    3958:	49 8b 54 24 60       	mov    0x60(%r12),%rdx
    395d:	48 89 55 60          	mov    %rdx,0x60(%rbp)
    3961:	49 8b 54 24 68       	mov    0x68(%r12),%rdx
    3966:	48 89 55 68          	mov    %rdx,0x68(%rbp)
    396a:	49 8b 54 24 70       	mov    0x70(%r12),%rdx
    396f:	48 89 55 70          	mov    %rdx,0x70(%rbp)
    3973:	49 8b 54 24 78       	mov    0x78(%r12),%rdx
    3978:	48 89 55 78          	mov    %rdx,0x78(%rbp)
    397c:	49 89 8c 24 88 00 00 	mov    %rcx,0x88(%r12)
    3983:	00 
    3984:	4d 89 6c 24 20       	mov    %r13,0x20(%r12)
    3989:	49 89 2c 24          	mov    %rbp,(%r12)
    398d:	49 89 6c 24 38       	mov    %rbp,0x38(%r12)
    3992:	48 89 45 f8          	mov    %rax,-0x8(%rbp)
    3996:	31 c0                	xor    %eax,%eax
    3998:	41 80 a4 24 a3 00 00 	andb   $0x7f,0xa3(%r12)
    399f:	00 7f 
    39a1:	e9 d8 fd ff ff       	jmpq   377e <trts_handle_exception+0x2e>
    39a6:	49 83 3c 24 00       	cmpq   $0x0,(%r12)
    39ab:	0f 85 ef fe ff ff    	jne    38a0 <trts_handle_exception+0x150>
    39b1:	48 83 c0 03          	add    $0x3,%rax
    39b5:	49 83 8c 24 80 00 00 	orq    $0x1,0x80(%r12)
    39bc:	00 01 
    39be:	49 89 84 24 88 00 00 	mov    %rax,0x88(%r12)
    39c5:	00 
    39c6:	31 c0                	xor    %eax,%eax
    39c8:	e9 b1 fd ff ff       	jmpq   377e <trts_handle_exception+0x2e>
    39cd:	0f 1f 00             	nopl   (%rax)

00000000000039d0 <get_xfeature_state>:
    39d0:	48 83 ec 08          	sub    $0x8,%rsp
    39d4:	e8 d7 98 01 00       	callq  1d2b0 <sgx_self_report>
    39d9:	48 8b 40 38          	mov    0x38(%rax),%rax
    39dd:	31 d2                	xor    %edx,%edx
    39df:	48 83 f8 03          	cmp    $0x3,%rax
    39e3:	0f 95 c2             	setne  %dl
    39e6:	89 15 5c ef 21 00    	mov    %edx,0x21ef5c(%rip)        # 222948 <g_xsave_enabled>
    39ec:	48 83 c4 08          	add    $0x8,%rsp
    39f0:	c3                   	retq   
    39f1:	66 2e 0f 1f 84 00 00 	nopw   %cs:0x0(%rax,%rax,1)
    39f8:	00 00 00 
    39fb:	0f 1f 44 00 00       	nopl   0x0(%rax,%rax,1)

0000000000003a00 <do_relocs>:
    3a00:	48 01 fe             	add    %rdi,%rsi
    3a03:	48 01 fa             	add    %rdi,%rdx
    3a06:	48 85 c9             	test   %rcx,%rcx
    3a09:	0f 84 48 02 00 00    	je     3c57 <do_relocs+0x257>
    3a0f:	55                   	push   %rbp
    3a10:	4c 8d 15 1d a3 01 00 	lea    0x1a31d(%rip),%r10        # 1dd34 <g_dyn_entry_table+0x214>
    3a17:	53                   	push   %rbx
    3a18:	45 31 c9             	xor    %r9d,%r9d
    3a1b:	0f 1f 44 00 00       	nopl   0x0(%rax,%rax,1)
    3a20:	4c 8b 46 08          	mov    0x8(%rsi),%r8
    3a24:	49 89 fb             	mov    %rdi,%r11
    3a27:	4c 03 1e             	add    (%rsi),%r11
    3a2a:	44 89 c0             	mov    %r8d,%eax
    3a2d:	48 83 f8 12          	cmp    $0x12,%rax
    3a31:	0f 87 7d 00 00 00    	ja     3ab4 <do_relocs+0xb4>
    3a37:	49 63 04 82          	movslq (%r10,%rax,4),%rax
    3a3b:	4c 01 d0             	add    %r10,%rax
    3a3e:	ff e0                	jmpq   *%rax
    3a40:	48 8b 68 30          	mov    0x30(%rax),%rbp
    3a44:	4c 8b 40 28          	mov    0x28(%rax),%r8
    3a48:	48 83 fd 01          	cmp    $0x1,%rbp
    3a4c:	76 0e                	jbe    3a5c <do_relocs+0x5c>
    3a4e:	4a 8d 44 05 ff       	lea    -0x1(%rbp,%r8,1),%rax
    3a53:	49 89 e8             	mov    %rbp,%r8
    3a56:	49 f7 d8             	neg    %r8
    3a59:	49 21 c0             	and    %rax,%r8
    3a5c:	4d 85 c0             	test   %r8,%r8
    3a5f:	74 53                	je     3ab4 <do_relocs+0xb4>
    3a61:	48 8b 46 10          	mov    0x10(%rsi),%rax
    3a65:	48 03 43 08          	add    0x8(%rbx),%rax
    3a69:	4c 29 c0             	sub    %r8,%rax
    3a6c:	49 89 03             	mov    %rax,(%r11)
    3a6f:	49 83 c1 01          	add    $0x1,%r9
    3a73:	48 83 c6 18          	add    $0x18,%rsi
    3a77:	4c 39 c9             	cmp    %r9,%rcx
    3a7a:	75 a4                	jne    3a20 <do_relocs+0x20>
    3a7c:	31 c0                	xor    %eax,%eax
    3a7e:	5b                   	pop    %rbx
    3a7f:	5d                   	pop    %rbp
    3a80:	c3                   	retq   
    3a81:	0f 1f 80 00 00 00 00 	nopl   0x0(%rax)
    3a88:	49 c1 e8 20          	shr    $0x20,%r8
    3a8c:	4b 8d 04 40          	lea    (%r8,%r8,2),%rax
    3a90:	48 8d 1c c2          	lea    (%rdx,%rax,8),%rbx
    3a94:	0f b6 43 04          	movzbl 0x4(%rbx),%eax
    3a98:	c0 e8 04             	shr    $0x4,%al
    3a9b:	3c 02                	cmp    $0x2,%al
    3a9d:	0f 84 dd 00 00 00    	je     3b80 <do_relocs+0x180>
    3aa3:	48 85 ff             	test   %rdi,%rdi
    3aa6:	74 0c                	je     3ab4 <do_relocs+0xb4>
    3aa8:	81 3f 7f 45 4c 46    	cmpl   $0x464c457f,(%rdi)
    3aae:	0f 84 3c 01 00 00    	je     3bf0 <do_relocs+0x1f0>
    3ab4:	b8 ff ff ff ff       	mov    $0xffffffff,%eax
    3ab9:	5b                   	pop    %rbx
    3aba:	5d                   	pop    %rbp
    3abb:	c3                   	retq   
    3abc:	0f 1f 40 00          	nopl   0x0(%rax)
    3ac0:	49 c1 e8 20          	shr    $0x20,%r8
    3ac4:	4b 8d 04 40          	lea    (%r8,%r8,2),%rax
    3ac8:	4c 8d 04 c2          	lea    (%rdx,%rax,8),%r8
    3acc:	41 0f b6 40 04       	movzbl 0x4(%r8),%eax
    3ad1:	c0 e8 04             	shr    $0x4,%al
    3ad4:	3c 02                	cmp    $0x2,%al
    3ad6:	49 8b 40 08          	mov    0x8(%r8),%rax
    3ada:	0f 84 e8 00 00 00    	je     3bc8 <do_relocs+0x1c8>
    3ae0:	48 03 46 10          	add    0x10(%rsi),%rax
    3ae4:	49 83 c1 01          	add    $0x1,%r9
    3ae8:	48 83 c6 18          	add    $0x18,%rsi
    3aec:	4c 39 c9             	cmp    %r9,%rcx
    3aef:	49 89 03             	mov    %rax,(%r11)
    3af2:	0f 85 28 ff ff ff    	jne    3a20 <do_relocs+0x20>
    3af8:	eb 82                	jmp    3a7c <do_relocs+0x7c>
    3afa:	66 0f 1f 44 00 00    	nopw   0x0(%rax,%rax,1)
    3b00:	49 83 c1 01          	add    $0x1,%r9
    3b04:	48 83 c6 18          	add    $0x18,%rsi
    3b08:	49 c7 03 01 00 00 00 	movq   $0x1,(%r11)
    3b0f:	4c 39 c9             	cmp    %r9,%rcx
    3b12:	0f 85 08 ff ff ff    	jne    3a20 <do_relocs+0x20>
    3b18:	e9 5f ff ff ff       	jmpq   3a7c <do_relocs+0x7c>
    3b1d:	0f 1f 00             	nopl   (%rax)
    3b20:	48 89 f8             	mov    %rdi,%rax
    3b23:	48 03 46 10          	add    0x10(%rsi),%rax
    3b27:	49 83 c1 01          	add    $0x1,%r9
    3b2b:	48 83 c6 18          	add    $0x18,%rsi
    3b2f:	4c 39 c9             	cmp    %r9,%rcx
    3b32:	49 89 03             	mov    %rax,(%r11)
    3b35:	0f 85 e5 fe ff ff    	jne    3a20 <do_relocs+0x20>
    3b3b:	e9 3c ff ff ff       	jmpq   3a7c <do_relocs+0x7c>
    3b40:	49 c1 e8 20          	shr    $0x20,%r8
    3b44:	4b 8d 04 40          	lea    (%r8,%r8,2),%rax
    3b48:	4c 8d 04 c2          	lea    (%rdx,%rax,8),%r8
    3b4c:	41 0f b6 40 04       	movzbl 0x4(%r8),%eax
    3b51:	c0 e8 04             	shr    $0x4,%al
    3b54:	3c 02                	cmp    $0x2,%al
    3b56:	49 8b 40 08          	mov    0x8(%r8),%rax
    3b5a:	74 4c                	je     3ba8 <do_relocs+0x1a8>
    3b5c:	49 89 f8             	mov    %rdi,%r8
    3b5f:	4c 03 46 10          	add    0x10(%rsi),%r8
    3b63:	49 83 c1 01          	add    $0x1,%r9
    3b67:	48 83 c6 18          	add    $0x18,%rsi
    3b6b:	4c 01 c0             	add    %r8,%rax
    3b6e:	4c 39 c9             	cmp    %r9,%rcx
    3b71:	49 89 03             	mov    %rax,(%r11)
    3b74:	0f 85 a6 fe ff ff    	jne    3a20 <do_relocs+0x20>
    3b7a:	e9 fd fe ff ff       	jmpq   3a7c <do_relocs+0x7c>
    3b7f:	90                   	nop
    3b80:	48 83 7b 08 00       	cmpq   $0x0,0x8(%rbx)
    3b85:	0f 85 18 ff ff ff    	jne    3aa3 <do_relocs+0xa3>
    3b8b:	49 83 c1 01          	add    $0x1,%r9
    3b8f:	48 83 c6 18          	add    $0x18,%rsi
    3b93:	4c 39 c9             	cmp    %r9,%rcx
    3b96:	0f 85 84 fe ff ff    	jne    3a20 <do_relocs+0x20>
    3b9c:	e9 db fe ff ff       	jmpq   3a7c <do_relocs+0x7c>
    3ba1:	0f 1f 80 00 00 00 00 	nopl   0x0(%rax)
    3ba8:	48 85 c0             	test   %rax,%rax
    3bab:	75 af                	jne    3b5c <do_relocs+0x15c>
    3bad:	49 83 c1 01          	add    $0x1,%r9
    3bb1:	48 83 c6 18          	add    $0x18,%rsi
    3bb5:	4c 39 c9             	cmp    %r9,%rcx
    3bb8:	0f 85 62 fe ff ff    	jne    3a20 <do_relocs+0x20>
    3bbe:	e9 b9 fe ff ff       	jmpq   3a7c <do_relocs+0x7c>
    3bc3:	0f 1f 44 00 00       	nopl   0x0(%rax,%rax,1)
    3bc8:	48 85 c0             	test   %rax,%rax
    3bcb:	0f 85 0f ff ff ff    	jne    3ae0 <do_relocs+0xe0>
    3bd1:	49 83 c1 01          	add    $0x1,%r9
    3bd5:	48 83 c6 18          	add    $0x18,%rsi
    3bd9:	4c 39 c9             	cmp    %r9,%rcx
    3bdc:	0f 85 3e fe ff ff    	jne    3a20 <do_relocs+0x20>
    3be2:	e9 95 fe ff ff       	jmpq   3a7c <do_relocs+0x7c>
    3be7:	66 0f 1f 84 00 00 00 	nopw   0x0(%rax,%rax,1)
    3bee:	00 00 
    3bf0:	66 83 7f 10 03       	cmpw   $0x3,0x10(%rdi)
    3bf5:	0f 85 b9 fe ff ff    	jne    3ab4 <do_relocs+0xb4>
    3bfb:	48 89 fd             	mov    %rdi,%rbp
    3bfe:	48 03 6f 20          	add    0x20(%rdi),%rbp
    3c02:	48 85 ed             	test   %rbp,%rbp
    3c05:	48 89 e8             	mov    %rbp,%rax
    3c08:	0f 84 a6 fe ff ff    	je     3ab4 <do_relocs+0xb4>
    3c0e:	44 0f b7 47 38       	movzwl 0x38(%rdi),%r8d
    3c13:	45 85 c0             	test   %r8d,%r8d
    3c16:	0f 84 98 fe ff ff    	je     3ab4 <do_relocs+0xb4>
    3c1c:	83 7d 00 07          	cmpl   $0x7,0x0(%rbp)
    3c20:	0f 84 1a fe ff ff    	je     3a40 <do_relocs+0x40>
    3c26:	41 83 e8 01          	sub    $0x1,%r8d
    3c2a:	4a 8d 2c c5 00 00 00 	lea    0x0(,%r8,8),%rbp
    3c31:	00 
    3c32:	49 c1 e0 06          	shl    $0x6,%r8
    3c36:	49 29 e8             	sub    %rbp,%r8
    3c39:	4e 8d 44 00 38       	lea    0x38(%rax,%r8,1),%r8
    3c3e:	eb 09                	jmp    3c49 <do_relocs+0x249>
    3c40:	83 38 07             	cmpl   $0x7,(%rax)
    3c43:	0f 84 f7 fd ff ff    	je     3a40 <do_relocs+0x40>
    3c49:	48 83 c0 38          	add    $0x38,%rax
    3c4d:	49 39 c0             	cmp    %rax,%r8
    3c50:	75 ee                	jne    3c40 <do_relocs+0x240>
    3c52:	e9 5d fe ff ff       	jmpq   3ab4 <do_relocs+0xb4>
    3c57:	31 c0                	xor    %eax,%eax
    3c59:	c3                   	retq   
    3c5a:	66 0f 1f 44 00 00    	nopw   0x0(%rax,%rax,1)

0000000000003c60 <relocate_enclave>:
    3c60:	48 85 ff             	test   %rdi,%rdi
    3c63:	74 08                	je     3c6d <relocate_enclave+0xd>
    3c65:	81 3f 7f 45 4c 46    	cmpl   $0x464c457f,(%rdi)
    3c6b:	74 06                	je     3c73 <relocate_enclave+0x13>
    3c6d:	b8 ff ff ff ff       	mov    $0xffffffff,%eax
    3c72:	c3                   	retq   
    3c73:	66 83 7f 10 03       	cmpw   $0x3,0x10(%rdi)
    3c78:	75 f3                	jne    3c6d <relocate_enclave+0xd>
    3c7a:	41 57                	push   %r15
    3c7c:	41 56                	push   %r14
    3c7e:	41 55                	push   %r13
    3c80:	41 54                	push   %r12
    3c82:	55                   	push   %rbp
    3c83:	53                   	push   %rbx
    3c84:	48 89 fb             	mov    %rdi,%rbx
    3c87:	48 83 ec 10          	sub    $0x10,%rsp
    3c8b:	48 03 5f 20          	add    0x20(%rdi),%rbx
    3c8f:	0f 84 f5 00 00 00    	je     3d8a <relocate_enclave+0x12a>
    3c95:	66 83 7f 38 00       	cmpw   $0x0,0x38(%rdi)
    3c9a:	0f 84 68 01 00 00    	je     3e08 <relocate_enclave+0x1a8>
    3ca0:	49 89 fd             	mov    %rdi,%r13
    3ca3:	31 ed                	xor    %ebp,%ebp
    3ca5:	4c 8d 25 d4 a0 01 00 	lea    0x1a0d4(%rip),%r12        # 1dd80 <g_dyn_entry_table+0x260>
    3cac:	eb 16                	jmp    3cc4 <relocate_enclave+0x64>
    3cae:	66 90                	xchg   %ax,%ax
    3cb0:	41 0f b7 45 38       	movzwl 0x38(%r13),%eax
    3cb5:	83 c5 01             	add    $0x1,%ebp
    3cb8:	48 83 c3 38          	add    $0x38,%rbx
    3cbc:	39 e8                	cmp    %ebp,%eax
    3cbe:	0f 86 44 01 00 00    	jbe    3e08 <relocate_enclave+0x1a8>
    3cc4:	83 3b 02             	cmpl   $0x2,(%rbx)
    3cc7:	75 e7                	jne    3cb0 <relocate_enclave+0x50>
    3cc9:	4c 8b 5b 20          	mov    0x20(%rbx),%r11
    3ccd:	4c 89 e8             	mov    %r13,%rax
    3cd0:	48 03 43 18          	add    0x18(%rbx),%rax
    3cd4:	49 c1 eb 04          	shr    $0x4,%r11
    3cd8:	4d 85 db             	test   %r11,%r11
    3cdb:	48 89 c7             	mov    %rax,%rdi
    3cde:	74 d0                	je     3cb0 <relocate_enclave+0x50>
    3ce0:	4c 8b 00             	mov    (%rax),%r8
    3ce3:	4d 85 c0             	test   %r8,%r8
    3ce6:	74 c8                	je     3cb0 <relocate_enclave+0x50>
    3ce8:	49 c1 e3 04          	shl    $0x4,%r11
    3cec:	45 31 ff             	xor    %r15d,%r15d
    3cef:	45 31 f6             	xor    %r14d,%r14d
    3cf2:	49 01 c3             	add    %rax,%r11
    3cf5:	45 31 c9             	xor    %r9d,%r9d
    3cf8:	31 c0                	xor    %eax,%eax
    3cfa:	31 f6                	xor    %esi,%esi
    3cfc:	45 31 d2             	xor    %r10d,%r10d
    3cff:	90                   	nop
    3d00:	49 83 f8 17          	cmp    $0x17,%r8
    3d04:	77 12                	ja     3d18 <relocate_enclave+0xb8>
    3d06:	4f 63 04 84          	movslq (%r12,%r8,4),%r8
    3d0a:	4d 01 e0             	add    %r12,%r8
    3d0d:	41 ff e0             	jmpq   *%r8
    3d10:	4c 8b 4f 08          	mov    0x8(%rdi),%r9
    3d14:	0f 1f 40 00          	nopl   0x0(%rax)
    3d18:	48 83 c7 10          	add    $0x10,%rdi
    3d1c:	4c 39 df             	cmp    %r11,%rdi
    3d1f:	74 08                	je     3d29 <relocate_enclave+0xc9>
    3d21:	4c 8b 07             	mov    (%rdi),%r8
    3d24:	4d 85 c0             	test   %r8,%r8
    3d27:	75 d7                	jne    3d00 <relocate_enclave+0xa0>
    3d29:	48 85 f6             	test   %rsi,%rsi
    3d2c:	0f 84 be 00 00 00    	je     3df0 <relocate_enclave+0x190>
    3d32:	4d 85 f6             	test   %r14,%r14
    3d35:	4c 89 0c 24          	mov    %r9,(%rsp)
    3d39:	74 4f                	je     3d8a <relocate_enclave+0x12a>
    3d3b:	31 d2                	xor    %edx,%edx
    3d3d:	4c 89 ef             	mov    %r13,%rdi
    3d40:	4c 89 54 24 08       	mov    %r10,0x8(%rsp)
    3d45:	49 f7 f6             	div    %r14
    3d48:	4c 89 d2             	mov    %r10,%rdx
    3d4b:	48 89 c1             	mov    %rax,%rcx
    3d4e:	e8 ad fc ff ff       	callq  3a00 <do_relocs>
    3d53:	85 c0                	test   %eax,%eax
    3d55:	4c 8b 54 24 08       	mov    0x8(%rsp),%r10
    3d5a:	4c 8b 0c 24          	mov    (%rsp),%r9
    3d5e:	75 2a                	jne    3d8a <relocate_enclave+0x12a>
    3d60:	4d 85 c9             	test   %r9,%r9
    3d63:	0f 84 47 ff ff ff    	je     3cb0 <relocate_enclave+0x50>
    3d69:	31 d2                	xor    %edx,%edx
    3d6b:	4c 89 f8             	mov    %r15,%rax
    3d6e:	4c 89 ce             	mov    %r9,%rsi
    3d71:	49 f7 f6             	div    %r14
    3d74:	4c 89 ef             	mov    %r13,%rdi
    3d77:	4c 89 d2             	mov    %r10,%rdx
    3d7a:	48 89 c1             	mov    %rax,%rcx
    3d7d:	e8 7e fc ff ff       	callq  3a00 <do_relocs>
    3d82:	85 c0                	test   %eax,%eax
    3d84:	0f 84 26 ff ff ff    	je     3cb0 <relocate_enclave+0x50>
    3d8a:	48 83 c4 10          	add    $0x10,%rsp
    3d8e:	b8 ff ff ff ff       	mov    $0xffffffff,%eax
    3d93:	5b                   	pop    %rbx
    3d94:	5d                   	pop    %rbp
    3d95:	41 5c                	pop    %r12
    3d97:	41 5d                	pop    %r13
    3d99:	41 5e                	pop    %r14
    3d9b:	41 5f                	pop    %r15
    3d9d:	c3                   	retq   
    3d9e:	66 90                	xchg   %ax,%ax
    3da0:	4c 8b 77 08          	mov    0x8(%rdi),%r14
    3da4:	e9 6f ff ff ff       	jmpq   3d18 <relocate_enclave+0xb8>
    3da9:	0f 1f 80 00 00 00 00 	nopl   0x0(%rax)
    3db0:	4c 8b 7f 08          	mov    0x8(%rdi),%r15
    3db4:	e9 5f ff ff ff       	jmpq   3d18 <relocate_enclave+0xb8>
    3db9:	0f 1f 80 00 00 00 00 	nopl   0x0(%rax)
    3dc0:	48 8b 77 08          	mov    0x8(%rdi),%rsi
    3dc4:	e9 4f ff ff ff       	jmpq   3d18 <relocate_enclave+0xb8>
    3dc9:	0f 1f 80 00 00 00 00 	nopl   0x0(%rax)
    3dd0:	4c 8b 57 08          	mov    0x8(%rdi),%r10
    3dd4:	e9 3f ff ff ff       	jmpq   3d18 <relocate_enclave+0xb8>
    3dd9:	0f 1f 80 00 00 00 00 	nopl   0x0(%rax)
    3de0:	48 8b 47 08          	mov    0x8(%rdi),%rax
    3de4:	e9 2f ff ff ff       	jmpq   3d18 <relocate_enclave+0xb8>
    3de9:	0f 1f 80 00 00 00 00 	nopl   0x0(%rax)
    3df0:	4d 85 c9             	test   %r9,%r9
    3df3:	0f 84 b7 fe ff ff    	je     3cb0 <relocate_enclave+0x50>
    3df9:	4d 85 f6             	test   %r14,%r14
    3dfc:	0f 85 67 ff ff ff    	jne    3d69 <relocate_enclave+0x109>
    3e02:	eb 86                	jmp    3d8a <relocate_enclave+0x12a>
    3e04:	0f 1f 40 00          	nopl   0x0(%rax)
    3e08:	48 83 c4 10          	add    $0x10,%rsp
    3e0c:	31 c0                	xor    %eax,%eax
    3e0e:	5b                   	pop    %rbx
    3e0f:	5d                   	pop    %rbp
    3e10:	41 5c                	pop    %r12
    3e12:	41 5d                	pop    %r13
    3e14:	41 5e                	pop    %r14
    3e16:	41 5f                	pop    %r15
    3e18:	c3                   	retq   
    3e19:	0f 1f 80 00 00 00 00 	nopl   0x0(%rax)

0000000000003e20 <elf_tls_info>:
    3e20:	48 85 ff             	test   %rdi,%rdi
    3e23:	b8 ff ff ff ff       	mov    $0xffffffff,%eax
    3e28:	74 08                	je     3e32 <elf_tls_info+0x12>
    3e2a:	81 3f 7f 45 4c 46    	cmpl   $0x464c457f,(%rdi)
    3e30:	74 06                	je     3e38 <elf_tls_info+0x18>
    3e32:	f3 c3                	repz retq 
    3e34:	0f 1f 40 00          	nopl   0x0(%rax)
    3e38:	66 83 7f 10 03       	cmpw   $0x3,0x10(%rdi)
    3e3d:	75 f3                	jne    3e32 <elf_tls_info+0x12>
    3e3f:	48 89 f8             	mov    %rdi,%rax
    3e42:	48 03 47 20          	add    0x20(%rdi),%rax
    3e46:	48 85 f6             	test   %rsi,%rsi
    3e49:	41 0f 94 c0          	sete   %r8b
    3e4d:	48 85 d2             	test   %rdx,%rdx
    3e50:	0f 94 c1             	sete   %cl
    3e53:	41 08 c8             	or     %cl,%r8b
    3e56:	75 69                	jne    3ec1 <elf_tls_info+0xa1>
    3e58:	48 85 c0             	test   %rax,%rax
    3e5b:	74 64                	je     3ec1 <elf_tls_info+0xa1>
    3e5d:	0f b7 4f 38          	movzwl 0x38(%rdi),%ecx
    3e61:	48 c7 06 00 00 00 00 	movq   $0x0,(%rsi)
    3e68:	48 c7 02 00 00 00 00 	movq   $0x0,(%rdx)
    3e6f:	85 c9                	test   %ecx,%ecx
    3e71:	74 33                	je     3ea6 <elf_tls_info+0x86>
    3e73:	83 38 07             	cmpl   $0x7,(%rax)
    3e76:	74 38                	je     3eb0 <elf_tls_info+0x90>
    3e78:	83 e9 01             	sub    $0x1,%ecx
    3e7b:	4c 8d 04 cd 00 00 00 	lea    0x0(,%rcx,8),%r8
    3e82:	00 
    3e83:	48 c1 e1 06          	shl    $0x6,%rcx
    3e87:	4c 29 c1             	sub    %r8,%rcx
    3e8a:	48 8d 4c 08 38       	lea    0x38(%rax,%rcx,1),%rcx
    3e8f:	eb 0c                	jmp    3e9d <elf_tls_info+0x7d>
    3e91:	0f 1f 80 00 00 00 00 	nopl   0x0(%rax)
    3e98:	83 38 07             	cmpl   $0x7,(%rax)
    3e9b:	74 13                	je     3eb0 <elf_tls_info+0x90>
    3e9d:	48 83 c0 38          	add    $0x38,%rax
    3ea1:	48 39 c8             	cmp    %rcx,%rax
    3ea4:	75 f2                	jne    3e98 <elf_tls_info+0x78>
    3ea6:	31 c0                	xor    %eax,%eax
    3ea8:	c3                   	retq   
    3ea9:	0f 1f 80 00 00 00 00 	nopl   0x0(%rax)
    3eb0:	48 03 78 10          	add    0x10(%rax),%rdi
    3eb4:	48 89 3e             	mov    %rdi,(%rsi)
    3eb7:	48 8b 40 20          	mov    0x20(%rax),%rax
    3ebb:	48 89 02             	mov    %rax,(%rdx)
    3ebe:	31 c0                	xor    %eax,%eax
    3ec0:	c3                   	retq   
    3ec1:	b8 ff ff ff ff       	mov    $0xffffffff,%eax
    3ec6:	c3                   	retq   
    3ec7:	66 0f 1f 84 00 00 00 	nopw   0x0(%rax,%rax,1)
    3ece:	00 00 

0000000000003ed0 <elf_get_init_array>:
    3ed0:	48 85 ff             	test   %rdi,%rdi
    3ed3:	b8 ff ff ff ff       	mov    $0xffffffff,%eax
    3ed8:	74 08                	je     3ee2 <elf_get_init_array+0x12>
    3eda:	81 3f 7f 45 4c 46    	cmpl   $0x464c457f,(%rdi)
    3ee0:	74 02                	je     3ee4 <elf_get_init_array+0x14>
    3ee2:	f3 c3                	repz retq 
    3ee4:	66 83 7f 10 03       	cmpw   $0x3,0x10(%rdi)
    3ee9:	75 f7                	jne    3ee2 <elf_get_init_array+0x12>
    3eeb:	49 89 f9             	mov    %rdi,%r9
    3eee:	4c 03 4f 20          	add    0x20(%rdi),%r9
    3ef2:	48 85 f6             	test   %rsi,%rsi
    3ef5:	0f 94 c1             	sete   %cl
    3ef8:	48 85 d2             	test   %rdx,%rdx
    3efb:	0f 94 c0             	sete   %al
    3efe:	08 c1                	or     %al,%cl
    3f00:	0f 85 9d 00 00 00    	jne    3fa3 <elf_get_init_array+0xd3>
    3f06:	4d 85 c9             	test   %r9,%r9
    3f09:	0f 84 94 00 00 00    	je     3fa3 <elf_get_init_array+0xd3>
    3f0f:	0f b7 47 38          	movzwl 0x38(%rdi),%eax
    3f13:	48 c7 06 00 00 00 00 	movq   $0x0,(%rsi)
    3f1a:	48 c7 02 00 00 00 00 	movq   $0x0,(%rdx)
    3f21:	85 c0                	test   %eax,%eax
    3f23:	74 7b                	je     3fa0 <elf_get_init_array+0xd0>
    3f25:	83 e8 01             	sub    $0x1,%eax
    3f28:	48 8d 0c c5 00 00 00 	lea    0x0(,%rax,8),%rcx
    3f2f:	00 
    3f30:	48 c1 e0 06          	shl    $0x6,%rax
    3f34:	48 29 c8             	sub    %rcx,%rax
    3f37:	4d 8d 54 01 38       	lea    0x38(%r9,%rax,1),%r10
    3f3c:	eb 0b                	jmp    3f49 <elf_get_init_array+0x79>
    3f3e:	66 90                	xchg   %ax,%ax
    3f40:	49 83 c1 38          	add    $0x38,%r9
    3f44:	4d 39 d1             	cmp    %r10,%r9
    3f47:	74 57                	je     3fa0 <elf_get_init_array+0xd0>
    3f49:	41 83 39 02          	cmpl   $0x2,(%r9)
    3f4d:	75 f1                	jne    3f40 <elf_get_init_array+0x70>
    3f4f:	4d 8b 41 20          	mov    0x20(%r9),%r8
    3f53:	48 89 f8             	mov    %rdi,%rax
    3f56:	49 03 41 18          	add    0x18(%r9),%rax
    3f5a:	49 c1 e8 04          	shr    $0x4,%r8
    3f5e:	4d 85 c0             	test   %r8,%r8
    3f61:	74 dd                	je     3f40 <elf_get_init_array+0x70>
    3f63:	49 c1 e0 04          	shl    $0x4,%r8
    3f67:	49 01 c0             	add    %rax,%r8
    3f6a:	eb 1a                	jmp    3f86 <elf_get_init_array+0xb6>
    3f6c:	0f 1f 40 00          	nopl   0x0(%rax)
    3f70:	48 83 f9 1b          	cmp    $0x1b,%rcx
    3f74:	75 07                	jne    3f7d <elf_get_init_array+0xad>
    3f76:	48 8b 48 08          	mov    0x8(%rax),%rcx
    3f7a:	48 89 0a             	mov    %rcx,(%rdx)
    3f7d:	48 83 c0 10          	add    $0x10,%rax
    3f81:	49 39 c0             	cmp    %rax,%r8
    3f84:	74 ba                	je     3f40 <elf_get_init_array+0x70>
    3f86:	48 8b 08             	mov    (%rax),%rcx
    3f89:	48 83 f9 19          	cmp    $0x19,%rcx
    3f8d:	75 e1                	jne    3f70 <elf_get_init_array+0xa0>
    3f8f:	48 8b 48 08          	mov    0x8(%rax),%rcx
    3f93:	48 89 0e             	mov    %rcx,(%rsi)
    3f96:	eb e5                	jmp    3f7d <elf_get_init_array+0xad>
    3f98:	0f 1f 84 00 00 00 00 	nopl   0x0(%rax,%rax,1)
    3f9f:	00 
    3fa0:	31 c0                	xor    %eax,%eax
    3fa2:	c3                   	retq   
    3fa3:	b8 ff ff ff ff       	mov    $0xffffffff,%eax
    3fa8:	c3                   	retq   
    3fa9:	0f 1f 80 00 00 00 00 	nopl   0x0(%rax)

0000000000003fb0 <elf_get_uninit_array>:
    3fb0:	48 85 ff             	test   %rdi,%rdi
    3fb3:	b8 ff ff ff ff       	mov    $0xffffffff,%eax
    3fb8:	74 08                	je     3fc2 <elf_get_uninit_array+0x12>
    3fba:	81 3f 7f 45 4c 46    	cmpl   $0x464c457f,(%rdi)
    3fc0:	74 02                	je     3fc4 <elf_get_uninit_array+0x14>
    3fc2:	f3 c3                	repz retq 
    3fc4:	66 83 7f 10 03       	cmpw   $0x3,0x10(%rdi)
    3fc9:	75 f7                	jne    3fc2 <elf_get_uninit_array+0x12>
    3fcb:	49 89 f9             	mov    %rdi,%r9
    3fce:	4c 03 4f 20          	add    0x20(%rdi),%r9
    3fd2:	48 85 f6             	test   %rsi,%rsi
    3fd5:	0f 94 c1             	sete   %cl
    3fd8:	48 85 d2             	test   %rdx,%rdx
    3fdb:	0f 94 c0             	sete   %al
    3fde:	08 c1                	or     %al,%cl
    3fe0:	0f 85 9d 00 00 00    	jne    4083 <elf_get_uninit_array+0xd3>
    3fe6:	4d 85 c9             	test   %r9,%r9
    3fe9:	0f 84 94 00 00 00    	je     4083 <elf_get_uninit_array+0xd3>
    3fef:	0f b7 47 38          	movzwl 0x38(%rdi),%eax
    3ff3:	48 c7 06 00 00 00 00 	movq   $0x0,(%rsi)
    3ffa:	48 c7 02 00 00 00 00 	movq   $0x0,(%rdx)
    4001:	85 c0                	test   %eax,%eax
    4003:	74 7b                	je     4080 <elf_get_uninit_array+0xd0>
    4005:	83 e8 01             	sub    $0x1,%eax
    4008:	48 8d 0c c5 00 00 00 	lea    0x0(,%rax,8),%rcx
    400f:	00 
    4010:	48 c1 e0 06          	shl    $0x6,%rax
    4014:	48 29 c8             	sub    %rcx,%rax
    4017:	4d 8d 54 01 38       	lea    0x38(%r9,%rax,1),%r10
    401c:	eb 0b                	jmp    4029 <elf_get_uninit_array+0x79>
    401e:	66 90                	xchg   %ax,%ax
    4020:	49 83 c1 38          	add    $0x38,%r9
    4024:	4d 39 d1             	cmp    %r10,%r9
    4027:	74 57                	je     4080 <elf_get_uninit_array+0xd0>
    4029:	41 83 39 02          	cmpl   $0x2,(%r9)
    402d:	75 f1                	jne    4020 <elf_get_uninit_array+0x70>
    402f:	4d 8b 41 20          	mov    0x20(%r9),%r8
    4033:	48 89 f8             	mov    %rdi,%rax
    4036:	49 03 41 18          	add    0x18(%r9),%rax
    403a:	49 c1 e8 04          	shr    $0x4,%r8
    403e:	4d 85 c0             	test   %r8,%r8
    4041:	74 dd                	je     4020 <elf_get_uninit_array+0x70>
    4043:	49 c1 e0 04          	shl    $0x4,%r8
    4047:	49 01 c0             	add    %rax,%r8
    404a:	eb 1a                	jmp    4066 <elf_get_uninit_array+0xb6>
    404c:	0f 1f 40 00          	nopl   0x0(%rax)
    4050:	48 83 f9 1c          	cmp    $0x1c,%rcx
    4054:	75 07                	jne    405d <elf_get_uninit_array+0xad>
    4056:	48 8b 48 08          	mov    0x8(%rax),%rcx
    405a:	48 89 0a             	mov    %rcx,(%rdx)
    405d:	48 83 c0 10          	add    $0x10,%rax
    4061:	49 39 c0             	cmp    %rax,%r8
    4064:	74 ba                	je     4020 <elf_get_uninit_array+0x70>
    4066:	48 8b 08             	mov    (%rax),%rcx
    4069:	48 83 f9 1a          	cmp    $0x1a,%rcx
    406d:	75 e1                	jne    4050 <elf_get_uninit_array+0xa0>
    406f:	48 8b 48 08          	mov    0x8(%rax),%rcx
    4073:	48 89 0e             	mov    %rcx,(%rsi)
    4076:	eb e5                	jmp    405d <elf_get_uninit_array+0xad>
    4078:	0f 1f 84 00 00 00 00 	nopl   0x0(%rax,%rax,1)
    407f:	00 
    4080:	31 c0                	xor    %eax,%eax
    4082:	c3                   	retq   
    4083:	b8 ff ff ff ff       	mov    $0xffffffff,%eax
    4088:	c3                   	retq   
    4089:	0f 1f 80 00 00 00 00 	nopl   0x0(%rax)

0000000000004090 <change_protection>:
    4090:	48 85 ff             	test   %rdi,%rdi
    4093:	b8 01 00 00 00       	mov    $0x1,%eax
    4098:	0f 84 e2 01 00 00    	je     4280 <change_protection+0x1f0>
    409e:	81 3f 7f 45 4c 46    	cmpl   $0x464c457f,(%rdi)
    40a4:	74 0a                	je     40b0 <change_protection+0x20>
    40a6:	f3 c3                	repz retq 
    40a8:	0f 1f 84 00 00 00 00 	nopl   0x0(%rax,%rax,1)
    40af:	00 
    40b0:	66 83 7f 10 03       	cmpw   $0x3,0x10(%rdi)
    40b5:	75 ef                	jne    40a6 <change_protection+0x16>
    40b7:	41 56                	push   %r14
    40b9:	41 55                	push   %r13
    40bb:	41 54                	push   %r12
    40bd:	55                   	push   %rbp
    40be:	53                   	push   %rbx
    40bf:	48 89 fb             	mov    %rdi,%rbx
    40c2:	48 03 5f 20          	add    0x20(%rdi),%rbx
    40c6:	0f 84 d2 00 00 00    	je     419e <change_protection+0x10e>
    40cc:	0f b7 47 38          	movzwl 0x38(%rdi),%eax
    40d0:	85 c0                	test   %eax,%eax
    40d2:	0f 84 30 01 00 00    	je     4208 <change_protection+0x178>
    40d8:	83 3b 02             	cmpl   $0x2,(%rbx)
    40db:	0f 84 33 01 00 00    	je     4214 <change_protection+0x184>
    40e1:	83 e8 01             	sub    $0x1,%eax
    40e4:	48 8d 14 c5 00 00 00 	lea    0x0(,%rax,8),%rdx
    40eb:	00 
    40ec:	48 c1 e0 06          	shl    $0x6,%rax
    40f0:	48 29 d0             	sub    %rdx,%rax
    40f3:	48 8d 54 03 38       	lea    0x38(%rbx,%rax,1),%rdx
    40f8:	48 89 d8             	mov    %rbx,%rax
    40fb:	eb 0c                	jmp    4109 <change_protection+0x79>
    40fd:	0f 1f 00             	nopl   (%rax)
    4100:	83 38 02             	cmpl   $0x2,(%rax)
    4103:	0f 84 17 01 00 00    	je     4220 <change_protection+0x190>
    4109:	48 83 c0 38          	add    $0x38,%rax
    410d:	48 39 d0             	cmp    %rdx,%rax
    4110:	75 ee                	jne    4100 <change_protection+0x70>
    4112:	45 31 f6             	xor    %r14d,%r14d
    4115:	49 89 fd             	mov    %rdi,%r13
    4118:	45 31 e4             	xor    %r12d,%r12d
    411b:	48 bd ff ff ff ff 02 	movabs $0x2ffffffff,%rbp
    4122:	00 00 00 
    4125:	eb 1f                	jmp    4146 <change_protection+0xb6>
    4127:	66 0f 1f 84 00 00 00 	nopw   0x0(%rax,%rax,1)
    412e:	00 00 
    4130:	41 0f b7 45 38       	movzwl 0x38(%r13),%eax
    4135:	41 83 c4 01          	add    $0x1,%r12d
    4139:	48 83 c3 38          	add    $0x38,%rbx
    413d:	44 39 e0             	cmp    %r12d,%eax
    4140:	0f 86 c2 00 00 00    	jbe    4208 <change_protection+0x178>
    4146:	45 85 f6             	test   %r14d,%r14d
    4149:	74 0c                	je     4157 <change_protection+0xc7>
    414b:	48 89 e8             	mov    %rbp,%rax
    414e:	48 23 03             	and    (%rbx),%rax
    4151:	48 83 f8 01          	cmp    $0x1,%rax
    4155:	74 59                	je     41b0 <change_protection+0x120>
    4157:	81 3b 52 e5 74 64    	cmpl   $0x6474e552,(%rbx)
    415d:	75 d1                	jne    4130 <change_protection+0xa0>
    415f:	48 8b 43 10          	mov    0x10(%rbx),%rax
    4163:	48 89 c7             	mov    %rax,%rdi
    4166:	48 03 43 28          	add    0x28(%rbx),%rax
    416a:	48 81 e7 00 f0 ff ff 	and    $0xfffffffffffff000,%rdi
    4171:	4c 01 ef             	add    %r13,%rdi
    4174:	48 89 c6             	mov    %rax,%rsi
    4177:	48 81 c6 ff 0f 00 00 	add    $0xfff,%rsi
    417e:	48 81 e6 00 f0 ff ff 	and    $0xfffffffffffff000,%rsi
    4185:	4c 01 ee             	add    %r13,%rsi
    4188:	48 39 f7             	cmp    %rsi,%rdi
    418b:	74 a3                	je     4130 <change_protection+0xa0>
    418d:	48 29 fe             	sub    %rdi,%rsi
    4190:	ba 01 00 00 00       	mov    $0x1,%edx
    4195:	e8 06 ef ff ff       	callq  30a0 <trts_mprotect>
    419a:	85 c0                	test   %eax,%eax
    419c:	74 92                	je     4130 <change_protection+0xa0>
    419e:	5b                   	pop    %rbx
    419f:	5d                   	pop    %rbp
    41a0:	41 5c                	pop    %r12
    41a2:	41 5d                	pop    %r13
    41a4:	41 5e                	pop    %r14
    41a6:	f3 c3                	repz retq 
    41a8:	0f 1f 84 00 00 00 00 	nopl   0x0(%rax,%rax,1)
    41af:	00 
    41b0:	48 8b 43 10          	mov    0x10(%rbx),%rax
    41b4:	8b 7b 04             	mov    0x4(%rbx),%edi
    41b7:	48 89 c1             	mov    %rax,%rcx
    41ba:	48 03 43 28          	add    0x28(%rbx),%rax
    41be:	89 fa                	mov    %edi,%edx
    41c0:	c1 ea 02             	shr    $0x2,%edx
    41c3:	48 81 e1 00 f0 ff ff 	and    $0xfffffffffffff000,%rcx
    41ca:	83 e2 01             	and    $0x1,%edx
    41cd:	48 89 c6             	mov    %rax,%rsi
    41d0:	48 89 d0             	mov    %rdx,%rax
    41d3:	48 81 c6 ff 0f 00 00 	add    $0xfff,%rsi
    41da:	48 83 c8 04          	or     $0x4,%rax
    41de:	48 81 e6 00 f0 ff ff 	and    $0xfffffffffffff000,%rsi
    41e5:	83 e7 01             	and    $0x1,%edi
    41e8:	49 8d 7c 0d 00       	lea    0x0(%r13,%rcx,1),%rdi
    41ed:	48 0f 45 d0          	cmovne %rax,%rdx
    41f1:	48 29 ce             	sub    %rcx,%rsi
    41f4:	e8 a7 ee ff ff       	callq  30a0 <trts_mprotect>
    41f9:	85 c0                	test   %eax,%eax
    41fb:	0f 84 56 ff ff ff    	je     4157 <change_protection+0xc7>
    4201:	eb 9b                	jmp    419e <change_protection+0x10e>
    4203:	0f 1f 44 00 00       	nopl   0x0(%rax,%rax,1)
    4208:	5b                   	pop    %rbx
    4209:	31 c0                	xor    %eax,%eax
    420b:	5d                   	pop    %rbp
    420c:	41 5c                	pop    %r12
    420e:	41 5d                	pop    %r13
    4210:	41 5e                	pop    %r14
    4212:	eb 92                	jmp    41a6 <change_protection+0x116>
    4214:	48 89 d8             	mov    %rbx,%rax
    4217:	66 0f 1f 84 00 00 00 	nopw   0x0(%rax,%rax,1)
    421e:	00 00 
    4220:	48 8b 48 20          	mov    0x20(%rax),%rcx
    4224:	48 89 fa             	mov    %rdi,%rdx
    4227:	48 03 50 18          	add    0x18(%rax),%rdx
    422b:	48 c1 e9 04          	shr    $0x4,%rcx
    422f:	48 85 c9             	test   %rcx,%rcx
    4232:	48 89 d0             	mov    %rdx,%rax
    4235:	0f 84 d7 fe ff ff    	je     4112 <change_protection+0x82>
    423b:	48 8b 12             	mov    (%rdx),%rdx
    423e:	48 85 d2             	test   %rdx,%rdx
    4241:	0f 84 cb fe ff ff    	je     4112 <change_protection+0x82>
    4247:	48 83 fa 16          	cmp    $0x16,%rdx
    424b:	74 35                	je     4282 <change_protection+0x1f2>
    424d:	48 c1 e1 04          	shl    $0x4,%rcx
    4251:	48 01 c1             	add    %rax,%rcx
    4254:	eb 1c                	jmp    4272 <change_protection+0x1e2>
    4256:	66 2e 0f 1f 84 00 00 	nopw   %cs:0x0(%rax,%rax,1)
    425d:	00 00 00 
    4260:	48 8b 10             	mov    (%rax),%rdx
    4263:	48 85 d2             	test   %rdx,%rdx
    4266:	0f 84 a6 fe ff ff    	je     4112 <change_protection+0x82>
    426c:	48 83 fa 16          	cmp    $0x16,%rdx
    4270:	74 10                	je     4282 <change_protection+0x1f2>
    4272:	48 83 c0 10          	add    $0x10,%rax
    4276:	48 39 c8             	cmp    %rcx,%rax
    4279:	75 e5                	jne    4260 <change_protection+0x1d0>
    427b:	e9 92 fe ff ff       	jmpq   4112 <change_protection+0x82>
    4280:	f3 c3                	repz retq 
    4282:	41 be 01 00 00 00    	mov    $0x1,%r14d
    4288:	e9 88 fe ff ff       	jmpq   4115 <change_protection+0x85>
    428d:	0f 1f 00             	nopl   (%rax)

0000000000004290 <init_global_object>:
    4290:	55                   	push   %rbp
    4291:	53                   	push   %rbx
    4292:	48 8d 3d 67 bd ff ff 	lea    -0x4299(%rip),%rdi        # 0 <enclave.so>
    4299:	48 83 ec 28          	sub    $0x28,%rsp
    429d:	48 8d 54 24 10       	lea    0x10(%rsp),%rdx
    42a2:	48 8d 74 24 08       	lea    0x8(%rsp),%rsi
    42a7:	48 c7 44 24 08 00 00 	movq   $0x0,0x8(%rsp)
    42ae:	00 00 
    42b0:	64 48 8b 04 25 28 00 	mov    %fs:0x28,%rax
    42b7:	00 00 
    42b9:	48 89 44 24 18       	mov    %rax,0x18(%rsp)
    42be:	31 c0                	xor    %eax,%eax
    42c0:	48 c7 44 24 10 00 00 	movq   $0x0,0x10(%rsp)
    42c7:	00 00 
    42c9:	e8 02 fc ff ff       	callq  3ed0 <elf_get_init_array>
    42ce:	85 c0                	test   %eax,%eax
    42d0:	75 0a                	jne    42dc <init_global_object+0x4c>
    42d2:	48 8b 5c 24 08       	mov    0x8(%rsp),%rbx
    42d7:	48 85 db             	test   %rbx,%rbx
    42da:	75 1c                	jne    42f8 <init_global_object+0x68>
    42dc:	48 8b 44 24 18       	mov    0x18(%rsp),%rax
    42e1:	64 48 33 04 25 28 00 	xor    %fs:0x28,%rax
    42e8:	00 00 
    42ea:	75 41                	jne    432d <init_global_object+0x9d>
    42ec:	48 83 c4 28          	add    $0x28,%rsp
    42f0:	5b                   	pop    %rbx
    42f1:	5d                   	pop    %rbp
    42f2:	c3                   	retq   
    42f3:	0f 1f 44 00 00       	nopl   0x0(%rax,%rax,1)
    42f8:	48 8b 6c 24 10       	mov    0x10(%rsp),%rbp
    42fd:	48 85 ed             	test   %rbp,%rbp
    4300:	74 da                	je     42dc <init_global_object+0x4c>
    4302:	48 8d 05 f7 bc ff ff 	lea    -0x4309(%rip),%rax        # 0 <enclave.so>
    4309:	48 83 e5 f8          	and    $0xfffffffffffffff8,%rbp
    430d:	48 01 c3             	add    %rax,%rbx
    4310:	48 01 dd             	add    %rbx,%rbp
    4313:	48 39 eb             	cmp    %rbp,%rbx
    4316:	73 c4                	jae    42dc <init_global_object+0x4c>
    4318:	0f 1f 84 00 00 00 00 	nopl   0x0(%rax,%rax,1)
    431f:	00 
    4320:	ff 13                	callq  *(%rbx)
    4322:	48 83 c3 08          	add    $0x8,%rbx
    4326:	48 39 dd             	cmp    %rbx,%rbp
    4329:	77 f5                	ja     4320 <init_global_object+0x90>
    432b:	eb af                	jmp    42dc <init_global_object+0x4c>
    432d:	e8 ee 00 00 00       	callq  4420 <__stack_chk_fail>
    4332:	66 2e 0f 1f 84 00 00 	nopw   %cs:0x0(%rax,%rax,1)
    4339:	00 00 00 
    433c:	0f 1f 40 00          	nopl   0x0(%rax)

0000000000004340 <uninit_global_object>:
    4340:	55                   	push   %rbp
    4341:	53                   	push   %rbx
    4342:	48 83 ec 28          	sub    $0x28,%rsp
    4346:	48 8b 1d 4b e6 21 00 	mov    0x21e64b(%rip),%rbx        # 222998 <g_exit_function>
    434d:	48 c7 05 40 e6 21 00 	movq   $0x0,0x21e640(%rip)        # 222998 <g_exit_function>
    4354:	00 00 00 00 
    4358:	64 48 8b 04 25 28 00 	mov    %fs:0x28,%rax
    435f:	00 00 
    4361:	48 89 44 24 18       	mov    %rax,0x18(%rsp)
    4366:	31 c0                	xor    %eax,%eax
    4368:	48 85 db             	test   %rbx,%rbx
    436b:	74 2a                	je     4397 <uninit_global_object+0x57>
    436d:	0f 1f 00             	nopl   (%rax)
    4370:	48 8b 05 19 e6 21 00 	mov    0x21e619(%rip),%rax        # 222990 <g_exit_function_cookie>
    4377:	48 89 c7             	mov    %rax,%rdi
    437a:	48 33 03             	xor    (%rbx),%rax
    437d:	48 33 7b 08          	xor    0x8(%rbx),%rdi
    4381:	ff d0                	callq  *%rax
    4383:	48 8b 6b 18          	mov    0x18(%rbx),%rbp
    4387:	48 89 df             	mov    %rbx,%rdi
    438a:	e8 91 22 00 00       	callq  6620 <dlfree>
    438f:	48 85 ed             	test   %rbp,%rbp
    4392:	48 89 eb             	mov    %rbp,%rbx
    4395:	75 d9                	jne    4370 <uninit_global_object+0x30>
    4397:	48 8d 54 24 10       	lea    0x10(%rsp),%rdx
    439c:	48 8d 74 24 08       	lea    0x8(%rsp),%rsi
    43a1:	48 8d 3d 58 bc ff ff 	lea    -0x43a8(%rip),%rdi        # 0 <enclave.so>
    43a8:	e8 03 fc ff ff       	callq  3fb0 <elf_get_uninit_array>
    43ad:	48 8b 6c 24 08       	mov    0x8(%rsp),%rbp
    43b2:	48 85 ed             	test   %rbp,%rbp
    43b5:	74 0a                	je     43c1 <uninit_global_object+0x81>
    43b7:	48 8b 54 24 10       	mov    0x10(%rsp),%rdx
    43bc:	48 85 d2             	test   %rdx,%rdx
    43bf:	75 1f                	jne    43e0 <uninit_global_object+0xa0>
    43c1:	48 8b 44 24 18       	mov    0x18(%rsp),%rax
    43c6:	64 48 33 04 25 28 00 	xor    %fs:0x28,%rax
    43cd:	00 00 
    43cf:	75 3c                	jne    440d <uninit_global_object+0xcd>
    43d1:	48 83 c4 28          	add    $0x28,%rsp
    43d5:	5b                   	pop    %rbx
    43d6:	5d                   	pop    %rbp
    43d7:	c3                   	retq   
    43d8:	0f 1f 84 00 00 00 00 	nopl   0x0(%rax,%rax,1)
    43df:	00 
    43e0:	48 8d 05 19 bc ff ff 	lea    -0x43e7(%rip),%rax        # 0 <enclave.so>
    43e7:	48 83 e2 f8          	and    $0xfffffffffffffff8,%rdx
    43eb:	48 01 c5             	add    %rax,%rbp
    43ee:	48 8d 5c 15 f8       	lea    -0x8(%rbp,%rdx,1),%rbx
    43f3:	48 39 dd             	cmp    %rbx,%rbp
    43f6:	77 c9                	ja     43c1 <uninit_global_object+0x81>
    43f8:	0f 1f 84 00 00 00 00 	nopl   0x0(%rax,%rax,1)
    43ff:	00 
    4400:	ff 13                	callq  *(%rbx)
    4402:	48 83 eb 08          	sub    $0x8,%rbx
    4406:	48 39 dd             	cmp    %rbx,%rbp
    4409:	76 f5                	jbe    4400 <uninit_global_object+0xc0>
    440b:	eb b4                	jmp    43c1 <uninit_global_object+0x81>
    440d:	e8 0e 00 00 00       	callq  4420 <__stack_chk_fail>
    4412:	66 2e 0f 1f 84 00 00 	nopw   %cs:0x0(%rax,%rax,1)
    4419:	00 00 00 
    441c:	0f 1f 40 00          	nopl   0x0(%rax)

0000000000004420 <__stack_chk_fail>:
    4420:	48 83 ec 08          	sub    $0x8,%rsp
    4424:	e8 81 96 01 00       	callq  1daaa <abort>
    4429:	0f 1f 80 00 00 00 00 	nopl   0x0(%rax)

0000000000004430 <__intel_security_check_cookie>:
    4430:	48 39 3d 01 da 21 00 	cmp    %rdi,0x21da01(%rip)        # 221e38 <__intel_security_cookie>
    4437:	75 02                	jne    443b <__intel_security_check_cookie+0xb>
    4439:	f3 c3                	repz retq 
    443b:	50                   	push   %rax
    443c:	e8 69 96 01 00       	callq  1daaa <abort>
    4441:	66 2e 0f 1f 84 00 00 	nopw   %cs:0x0(%rax,%rax,1)
    4448:	00 00 00 
    444b:	0f 1f 44 00 00       	nopl   0x0(%rax,%rax,1)

0000000000004450 <__errno>:
    4450:	e9 ab f0 ff ff       	jmpq   3500 <get_errno_addr>
    4455:	66 2e 0f 1f 84 00 00 	nopw   %cs:0x0(%rax,%rax,1)
    445c:	00 00 00 
    445f:	90                   	nop

0000000000004460 <init_mparams>:
    4460:	48 83 ec 18          	sub    $0x18,%rsp
    4464:	64 48 8b 04 25 28 00 	mov    %fs:0x28,%rax
    446b:	00 00 
    446d:	48 89 44 24 08       	mov    %rax,0x8(%rsp)
    4472:	31 c0                	xor    %eax,%eax
    4474:	b8 01 00 00 00       	mov    $0x1,%eax
    4479:	87 05 11 e9 21 00    	xchg   %eax,0x21e911(%rip)        # 222d90 <malloc_global_mutex>
    447f:	85 c0                	test   %eax,%eax
    4481:	74 23                	je     44a6 <init_mparams+0x46>
    4483:	ba 01 00 00 00       	mov    $0x1,%edx
    4488:	0f 1f 84 00 00 00 00 	nopl   0x0(%rax,%rax,1)
    448f:	00 
    4490:	8b 05 fa e8 21 00    	mov    0x21e8fa(%rip),%eax        # 222d90 <malloc_global_mutex>
    4496:	85 c0                	test   %eax,%eax
    4498:	75 f6                	jne    4490 <init_mparams+0x30>
    449a:	89 d0                	mov    %edx,%eax
    449c:	87 05 ee e8 21 00    	xchg   %eax,0x21e8ee(%rip)        # 222d90 <malloc_global_mutex>
    44a2:	85 c0                	test   %eax,%eax
    44a4:	75 ea                	jne    4490 <init_mparams+0x30>
    44a6:	48 83 3d b2 e8 21 00 	cmpq   $0x0,0x21e8b2(%rip)        # 222d60 <mparams>
    44ad:	00 
    44ae:	75 74                	jne    4524 <init_mparams+0xc4>
    44b0:	48 89 e7             	mov    %rsp,%rdi
    44b3:	be 08 00 00 00       	mov    $0x8,%esi
    44b8:	48 c7 05 ad e8 21 00 	movq   $0x1000,0x21e8ad(%rip)        # 222d70 <mparams+0x10>
    44bf:	00 10 00 00 
    44c3:	48 c7 05 9a e8 21 00 	movq   $0x1000,0x21e89a(%rip)        # 222d68 <mparams+0x8>
    44ca:	00 10 00 00 
    44ce:	48 c7 05 9f e8 21 00 	movq   $0xffffffffffffffff,0x21e89f(%rip)        # 222d78 <mparams+0x18>
    44d5:	ff ff ff ff 
    44d9:	48 c7 05 9c e8 21 00 	movq   $0x200000,0x21e89c(%rip)        # 222d80 <mparams+0x20>
    44e0:	00 00 20 00 
    44e4:	c7 05 9a e8 21 00 02 	movl   $0x2,0x21e89a(%rip)        # 222d88 <mparams+0x28>
    44eb:	00 00 00 
    44ee:	c7 05 18 e8 21 00 02 	movl   $0x2,0x21e818(%rip)        # 222d10 <_gm_+0x370>
    44f5:	00 00 00 
    44f8:	c7 05 12 e8 21 00 00 	movl   $0x0,0x21e812(%rip)        # 222d14 <_gm_+0x374>
    44ff:	00 00 00 
    4502:	e8 99 d8 ff ff       	callq  1da0 <sgx_read_rand>
    4507:	85 c0                	test   %eax,%eax
    4509:	75 3d                	jne    4548 <init_mparams+0xe8>
    450b:	48 8b 04 24          	mov    (%rsp),%rax
    450f:	48 35 55 55 55 55    	xor    $0x55555555,%rax
    4515:	48 83 e0 f8          	and    $0xfffffffffffffff8,%rax
    4519:	48 83 c8 08          	or     $0x8,%rax
    451d:	48 89 05 3c e8 21 00 	mov    %rax,0x21e83c(%rip)        # 222d60 <mparams>
    4524:	c7 05 62 e8 21 00 00 	movl   $0x0,0x21e862(%rip)        # 222d90 <malloc_global_mutex>
    452b:	00 00 00 
    452e:	b8 01 00 00 00       	mov    $0x1,%eax
    4533:	48 8b 4c 24 08       	mov    0x8(%rsp),%rcx
    4538:	64 48 33 0c 25 28 00 	xor    %fs:0x28,%rcx
    453f:	00 00 
    4541:	75 0a                	jne    454d <init_mparams+0xed>
    4543:	48 83 c4 18          	add    $0x18,%rsp
    4547:	c3                   	retq   
    4548:	e8 5d 95 01 00       	callq  1daaa <abort>
    454d:	e8 ce fe ff ff       	callq  4420 <__stack_chk_fail>
    4552:	66 2e 0f 1f 84 00 00 	nopw   %cs:0x0(%rax,%rax,1)
    4559:	00 00 00 
    455c:	0f 1f 40 00          	nopl   0x0(%rax)

0000000000004560 <dispose_chunk>:
    4560:	48 8b 46 08          	mov    0x8(%rsi),%rax
    4564:	53                   	push   %rbx
    4565:	4c 8d 04 16          	lea    (%rsi,%rdx,1),%r8
    4569:	a8 01                	test   $0x1,%al
    456b:	0f 85 ff 01 00 00    	jne    4770 <dispose_chunk+0x210>
    4571:	a8 03                	test   $0x3,%al
    4573:	0f 84 ec 01 00 00    	je     4765 <dispose_chunk+0x205>
    4579:	48 8b 0e             	mov    (%rsi),%rcx
    457c:	4c 8b 57 18          	mov    0x18(%rdi),%r10
    4580:	48 29 ce             	sub    %rcx,%rsi
    4583:	48 01 ca             	add    %rcx,%rdx
    4586:	4c 39 d6             	cmp    %r10,%rsi
    4589:	0f 82 69 03 00 00    	jb     48f8 <dispose_chunk+0x398>
    458f:	48 3b 77 20          	cmp    0x20(%rdi),%rsi
    4593:	0f 84 97 04 00 00    	je     4a30 <dispose_chunk+0x4d0>
    4599:	48 c1 e9 03          	shr    $0x3,%rcx
    459d:	48 83 f9 1f          	cmp    $0x1f,%rcx
    45a1:	0f 86 d1 03 00 00    	jbe    4978 <dispose_chunk+0x418>
    45a7:	48 8b 46 18          	mov    0x18(%rsi),%rax
    45ab:	48 8b 5e 30          	mov    0x30(%rsi),%rbx
    45af:	48 39 c6             	cmp    %rax,%rsi
    45b2:	0f 84 3e 05 00 00    	je     4af6 <dispose_chunk+0x596>
    45b8:	48 8b 4e 10          	mov    0x10(%rsi),%rcx
    45bc:	49 39 ca             	cmp    %rcx,%r10
    45bf:	0f 87 33 03 00 00    	ja     48f8 <dispose_chunk+0x398>
    45c5:	48 3b 71 18          	cmp    0x18(%rcx),%rsi
    45c9:	0f 85 29 03 00 00    	jne    48f8 <dispose_chunk+0x398>
    45cf:	48 3b 70 10          	cmp    0x10(%rax),%rsi
    45d3:	0f 85 1f 03 00 00    	jne    48f8 <dispose_chunk+0x398>
    45d9:	48 89 41 18          	mov    %rax,0x18(%rcx)
    45dd:	48 89 48 10          	mov    %rcx,0x10(%rax)
    45e1:	48 85 db             	test   %rbx,%rbx
    45e4:	0f 84 8a 01 00 00    	je     4774 <dispose_chunk+0x214>
    45ea:	44 8b 4e 38          	mov    0x38(%rsi),%r9d
    45ee:	4c 89 c9             	mov    %r9,%rcx
    45f1:	4e 8d 0c cf          	lea    (%rdi,%r9,8),%r9
    45f5:	49 3b b1 58 02 00 00 	cmp    0x258(%r9),%rsi
    45fc:	0f 84 6e 05 00 00    	je     4b70 <dispose_chunk+0x610>
    4602:	4c 39 d3             	cmp    %r10,%rbx
    4605:	0f 82 ed 02 00 00    	jb     48f8 <dispose_chunk+0x398>
    460b:	48 3b 73 20          	cmp    0x20(%rbx),%rsi
    460f:	0f 84 c3 05 00 00    	je     4bd8 <dispose_chunk+0x678>
    4615:	48 89 43 28          	mov    %rax,0x28(%rbx)
    4619:	48 85 c0             	test   %rax,%rax
    461c:	0f 84 52 01 00 00    	je     4774 <dispose_chunk+0x214>
    4622:	4c 39 d0             	cmp    %r10,%rax
    4625:	0f 82 cd 02 00 00    	jb     48f8 <dispose_chunk+0x398>
    462b:	48 8b 4e 20          	mov    0x20(%rsi),%rcx
    462f:	48 89 58 30          	mov    %rbx,0x30(%rax)
    4633:	48 85 c9             	test   %rcx,%rcx
    4636:	74 11                	je     4649 <dispose_chunk+0xe9>
    4638:	4c 39 d1             	cmp    %r10,%rcx
    463b:	0f 82 b7 02 00 00    	jb     48f8 <dispose_chunk+0x398>
    4641:	48 89 48 20          	mov    %rcx,0x20(%rax)
    4645:	48 89 41 30          	mov    %rax,0x30(%rcx)
    4649:	48 8b 4e 28          	mov    0x28(%rsi),%rcx
    464d:	48 85 c9             	test   %rcx,%rcx
    4650:	0f 84 1e 01 00 00    	je     4774 <dispose_chunk+0x214>
    4656:	4c 39 d1             	cmp    %r10,%rcx
    4659:	0f 82 99 02 00 00    	jb     48f8 <dispose_chunk+0x398>
    465f:	48 89 48 28          	mov    %rcx,0x28(%rax)
    4663:	48 89 41 30          	mov    %rax,0x30(%rcx)
    4667:	e9 08 01 00 00       	jmpq   4774 <dispose_chunk+0x214>
    466c:	0f 1f 40 00          	nopl   0x0(%rax)
    4670:	48 89 d1             	mov    %rdx,%rcx
    4673:	48 c1 e9 08          	shr    $0x8,%rcx
    4677:	85 c9                	test   %ecx,%ecx
    4679:	0f 84 81 02 00 00    	je     4900 <dispose_chunk+0x3a0>
    467f:	81 f9 ff ff 00 00    	cmp    $0xffff,%ecx
    4685:	41 b8 00 00 00 80    	mov    $0x80000000,%r8d
    468b:	b8 1f 00 00 00       	mov    $0x1f,%eax
    4690:	77 2d                	ja     46bf <dispose_chunk+0x15f>
    4692:	44 0f bd c1          	bsr    %ecx,%r8d
    4696:	b9 26 00 00 00       	mov    $0x26,%ecx
    469b:	48 89 d3             	mov    %rdx,%rbx
    469e:	41 83 f0 1f          	xor    $0x1f,%r8d
    46a2:	44 29 c1             	sub    %r8d,%ecx
    46a5:	44 29 c0             	sub    %r8d,%eax
    46a8:	41 b8 01 00 00 00    	mov    $0x1,%r8d
    46ae:	48 d3 eb             	shr    %cl,%rbx
